00000000: fd412403    lw   x8, -44(x2)
00000004: 01340263    beq  x8, x19, 4
00000008: 00810533    add  x10, x2, x8
0000000c: 01839263    bne  x7, x24, 4
00000010: 83412c83    lw   x25, -1996(x2)
00000014: cf812383    lw   x7, -776(x2)
00000018: b0c12c23    sw   x12, -1256(x2)
0000001c: 96012c03    lw   x24, -1696(x2)
00000020: a9212223    sw   x18, -1404(x2)
00000024: e2412b83    lw   x23, -476(x2)
00000028: a8c12e03    lw   x28, -1396(x2)
0000002c: 01ce1263    bne  x28, x28, 4
00000030: a4866a93    ori  x21, x12, -1464
00000034: 42444513    xori x10, x8, 1060
00000038: 9ca96413    ori  x8, x18, -1590
0000003c: a1c12383    lw   x7, -1508(x2)
00000040: ecc12a83    lw   x21, -308(x2)
00000044: c8912823    sw   x9, -880(x2)
00000048: 5b412e83    lw   x29, 1460(x2)
0000004c: af912423    sw   x25, -1304(x2)
00000050: 00420263    beq  x4, x4, 4
00000054: 00d76b33    or   x22, x14, x13
00000058: 01790fb3    add  x31, x18, x23
0000005c: b9012503    lw   x10, -1136(x2)
00000060: db412883    lw   x17, -588(x2)
00000064: 3f757d13    andi x26, x10, 1015
00000068: 00bd48b3    xor  x17, x26, x11
0000006c: fa812103    lw   x2, -88(x2)
00000070: 019108b3    add  x17, x2, x25
00000074: 73597993    andi x19, x18, 1845
00000078: ede12223    sw   x30, -316(x2)
0000007c: 4c4c6b13    ori  x22, x24, 1220
00000080: bc812e23    sw   x8, -1060(x2)
00000084: 0135c433    xor  x8, x11, x19
00000088: 017b8263    beq  x23, x23, 4
0000008c: 00410263    beq  x2, x4, 4
00000090: 72087413    andi x8, x16, 1824
00000094: 017387b3    add  x15, x7, x23
00000098: 002e0733    add  x14, x28, x2
0000009c: e1627993    andi x19, x4, -490
000000a0: ffc12e23    sw   x28, -4(x2)
000000a4: 016789b3    add  x19, x15, x22
000000a8: 501f7813    andi x16, x30, 1281
000000ac: 40de80b3    sub  x1, x29, x13
000000b0: 12e12023    sw   x14, 288(x2)
000000b4: ce712a23    sw   x7, -780(x2)
000000b8: 018fc933    xor  x18, x31, x24
000000bc: 010949b3    xor  x19, x18, x16
000000c0: 40410b33    sub  x22, x2, x4
000000c4: bdf12a23    sw   x31, -1068(x2)
000000c8: 00344833    xor  x16, x8, x3
000000cc: e8812b03    lw   x22, -376(x2)
000000d0: 6a16e593    ori  x11, x13, 1697
000000d4: b2312823    sw   x3, -1232(x2)
000000d8: c3c12f03    lw   x30, -964(x2)
000000dc: 00840263    beq  x8, x8, 4
000000e0: 84012b03    lw   x22, -1984(x2)
000000e4: 409b0233    sub  x4, x22, x9
000000e8: 10412a03    lw   x20, 260(x2)
000000ec: 7a012483    lw   x9, 1952(x2)
000000f0: 0c212c23    sw   x2, 216(x2)
000000f4: 019c9263    bne  x25, x25, 4
000000f8: 84412623    sw   x4, -1972(x2)
000000fc: 01de8263    beq  x29, x29, 4
00000100: cbc12703    lw   x14, -836(x2)
00000104: 00777c33    and  x24, x14, x7
00000108: 01ec1263    bne  x24, x30, 4
0000010c: d33c7d93    andi x27, x24, -717
00000110: 52c0ed93    ori  x27, x1, 1324
00000114: d1812d03    lw   x26, -744(x2)
00000118: f0712e23    sw   x7, -228(x2)
0000011c: 1c412d83    lw   x27, 452(x2)
00000120: 2810c513    xori x10, x1, 641
00000124: 4c812b03    lw   x22, 1224(x2)
00000128: 01df84b3    add  x9, x31, x29
0000012c: 93812203    lw   x4, -1736(x2)
00000130: 5f412a03    lw   x20, 1524(x2)
00000134: 01de9263    bne  x29, x29, 4
00000138: 00e70263    beq  x14, x14, 4
0000013c: 20812b03    lw   x22, 520(x2)
00000140: 51012583    lw   x11, 1296(x2)
00000144: 4212cb93    xori x23, x5, 1057
00000148: 4fc12903    lw   x18, 1276(x2)
0000014c: 24f12623    sw   x15, 588(x2)
00000150: d6eb4b93    xori x23, x22, -658
00000154: afc12d83    lw   x27, -1284(x2)
00000158: cb757093    andi x1, x10, -841
0000015c: 00f0efb3    or   x31, x1, x15
00000160: 7cd12823    sw   x13, 2000(x2)
00000164: 01aa8733    add  x14, x21, x26
00000168: 99212c23    sw   x18, -1640(x2)
0000016c: 005e6db3    or   x27, x28, x5
00000170: 62812a03    lw   x20, 1576(x2)
00000174: d1812a23    sw   x24, -748(x2)
00000178: fe812d83    lw   x27, -24(x2)
0000017c: fa912223    sw   x9, -92(x2)
00000180: f8012483    lw   x9, -128(x2)
00000184: f661f713    andi x14, x3, -154
00000188: 50b12423    sw   x11, 1288(x2)
0000018c: 41c707b3    sub  x15, x14, x28
00000190: 00dfc8b3    xor  x17, x31, x13
00000194: 57212423    sw   x18, 1384(x2)
00000198: f0594493    xori x9, x18, -251
0000019c: 00b59263    bne  x11, x11, 4
000001a0: c1412a23    sw   x20, -1004(x2)
000001a4: 8c312e23    sw   x3, -1828(x2)
000001a8: dc212823    sw   x2, -560(x2)
000001ac: 2755c613    xori x12, x11, 629
000001b0: 01b12823    sw   x27, 16(x2)
000001b4: 00309263    bne  x1, x3, 4
000001b8: 00918433    add  x8, x3, x9
000001bc: ba944a13    xori x20, x8, -1111
000001c0: d5c12a03    lw   x20, -676(x2)
000001c4: b7526a13    ori  x20, x4, -1163
000001c8: 4bf12823    sw   x31, 1200(x2)
000001cc: 1a618e93    addi x29, x3, 422
000001d0: 012d7733    and  x14, x26, x18
000001d4: 015a9263    bne  x21, x21, 4
000001d8: 39512a23    sw   x21, 916(x2)
000001dc: da27cc93    xori x25, x15, -606
000001e0: 6ee12023    sw   x14, 1760(x2)
000001e4: 25012e03    lw   x28, 592(x2)
000001e8: 66c12403    lw   x8, 1644(x2)
000001ec: 2c112023    sw   x1, 704(x2)
000001f0: ec95c693    xori x13, x11, -311
000001f4: 85012883    lw   x17, -1968(x2)
000001f8: 018c0263    beq  x24, x24, 4
000001fc: 65a12a23    sw   x26, 1620(x2)
00000200: 00a50263    beq  x10, x10, 4
00000204: 72412903    lw   x18, 1828(x2)
00000208: 34012b83    lw   x23, 832(x2)
0000020c: 40c40233    sub  x4, x8, x12
00000210: eecbfc93    andi x25, x23, -276
00000214: b3412d83    lw   x27, -1228(x2)
00000218: 873deb93    ori  x23, x27, -1933
0000021c: c0812a83    lw   x21, -1016(x2)
00000220: 00ae48b3    xor  x17, x28, x10
00000224: 01cff833    and  x16, x31, x28
00000228: 01080263    beq  x16, x16, 4
0000022c: ab812403    lw   x8, -1352(x2)
00000230: 66a44f93    xori x31, x8, 1642
00000234: 9ec12a03    lw   x20, -1556(x2)
00000238: 019c8263    beq  x25, x25, 4
0000023c: d8f1f993    andi x19, x3, -625
00000240: 01399263    bne  x19, x19, 4
00000244: 10c12b83    lw   x23, 268(x2)
00000248: 01b40263    beq  x8, x27, 4
0000024c: 08097e13    andi x28, x18, 128
00000250: 014e1263    bne  x28, x20, 4
00000254: 4e012f83    lw   x31, 1248(x2)
00000258: a9412823    sw   x20, -1392(x2)
0000025c: 01571263    bne  x14, x21, 4
00000260: 01c40263    beq  x8, x28, 4
00000264: 94812c83    lw   x25, -1720(x2)
00000268: 0e612223    sw   x6, 228(x2)
0000026c: af012423    sw   x16, -1304(x2)
00000270: b5812e03    lw   x28, -1192(x2)
00000274: 13612c23    sw   x22, 312(x2)
00000278: 003de633    or   x12, x27, x3
0000027c: 01d60263    beq  x12, x29, 4
00000280: 52212c23    sw   x2, 1336(x2)
00000284: 63912223    sw   x25, 1572(x2)
00000288: 00949263    bne  x9, x9, 4
0000028c: be112023    sw   x1, -1056(x2)
00000290: 1f1a7913    andi x18, x20, 497
00000294: 6c490213    addi x4, x18, 1732
00000298: 0bc12703    lw   x14, 188(x2)
0000029c: cad12023    sw   x13, -864(x2)
000002a0: 0d7a0d13    addi x26, x20, 215
000002a4: 81412503    lw   x10, -2028(x2)
000002a8: ccf12023    sw   x15, -832(x2)
000002ac: 41012783    lw   x15, 1040(x2)
000002b0: f79bce93    xori x29, x23, -135
000002b4: 018c1263    bne  x24, x24, 4
000002b8: 92fb4293    xori x5, x22, -1745
000002bc: 004e6933    or   x18, x28, x4
000002c0: 00528263    beq  x5, x5, 4
000002c4: 00bd1263    bne  x26, x11, 4
000002c8: 42812f83    lw   x31, 1064(x2)
000002cc: 93412223    sw   x20, -1756(x2)
000002d0: 015a9263    bne  x21, x21, 4
000002d4: 004c6db3    or   x27, x24, x4
000002d8: 8ed7e113    ori  x2, x15, -1811
000002dc: 00c60263    beq  x12, x12, 4
000002e0: d9a77193    andi x3, x14, -614
000002e4: c94b4413    xori x8, x22, -876
000002e8: 01e4e5b3    or   x11, x9, x30
000002ec: 19012a83    lw   x21, 400(x2)
000002f0: e5c12683    lw   x13, -420(x2)
000002f4: 00d69263    bne  x13, x13, 4
000002f8: 009560b3    or   x1, x10, x9
000002fc: 019c4833    xor  x16, x24, x25
00000300: f02cea93    ori  x21, x25, -254
00000304: 942a8513    addi x10, x21, -1726
00000308: 00361263    bne  x12, x3, 4
0000030c: c3a77d93    andi x27, x14, -966
00000310: d4012483    lw   x9, -704(x2)
00000314: 2d412d03    lw   x26, 724(x2)
00000318: 4b7d7e93    andi x29, x26, 1207
0000031c: 86912823    sw   x9, -1936(x2)
00000320: 06012983    lw   x19, 96(x2)
00000324: 411600b3    sub  x1, x12, x17
00000328: 6db58f93    addi x31, x11, 1755
0000032c: 93020593    addi x11, x4, -1744
00000330: 00541263    bne  x8, x5, 4
00000334: cfd12823    sw   x29, -784(x2)
00000338: 51f12623    sw   x31, 1292(x2)
0000033c: ef012783    lw   x15, -272(x2)
00000340: 01367fb3    and  x31, x12, x19
00000344: e1012f83    lw   x31, -496(x2)
00000348: af612623    sw   x22, -1300(x2)
0000034c: 01ba85b3    add  x11, x21, x27
00000350: ea158a13    addi x20, x11, -351
00000354: cb812d03    lw   x26, -840(x2)
00000358: 005e1263    bne  x28, x5, 4
0000035c: 40120733    sub  x14, x4, x1
00000360: 40958133    sub  x2, x11, x9
00000364: 01110833    add  x16, x2, x17
00000368: f1f12a23    sw   x31, -236(x2)
0000036c: 6a812a83    lw   x21, 1704(x2)
00000370: 00e80263    beq  x16, x14, 4
00000374: a5d12c23    sw   x29, -1448(x2)
00000378: 014a0263    beq  x20, x20, 4
0000037c: 43012a03    lw   x20, 1072(x2)
00000380: b3a12623    sw   x26, -1236(x2)
00000384: 673e4f13    xori x30, x28, 1651
00000388: 4ce12023    sw   x14, 1216(x2)
0000038c: 21612023    sw   x22, 512(x2)
00000390: a25fc193    xori x3, x31, -1499
00000394: 00d20263    beq  x4, x13, 4
00000398: be812703    lw   x14, -1048(x2)
0000039c: 9bf12223    sw   x31, -1628(x2)
000003a0: b5012983    lw   x19, -1200(x2)
000003a4: 33480e93    addi x29, x16, 820
000003a8: 00949263    bne  x9, x9, 4
000003ac: 01fccb33    xor  x22, x25, x31
000003b0: 1e012f03    lw   x30, 480(x2)
000003b4: 01ce1263    bne  x28, x28, 4
000003b8: 018c0263    beq  x24, x24, 4
000003bc: 01189263    bne  x17, x17, 4
000003c0: 1f812c03    lw   x24, 504(x2)
000003c4: 005a03b3    add  x7, x20, x5
000003c8: 00319263    bne  x3, x3, 4
000003cc: 0a712e23    sw   x7, 188(x2)
000003d0: 5c012203    lw   x4, 1472(x2)
000003d4: 1c212e23    sw   x2, 476(x2)
000003d8: 007a05b3    add  x11, x20, x7
000003dc: 14012583    lw   x11, 320(x2)
000003e0: d8512e23    sw   x5, -612(x2)
000003e4: a4ebe693    ori  x13, x23, -1458
000003e8: 00108263    beq  x1, x1, 4
000003ec: 4f712823    sw   x23, 1264(x2)
000003f0: 001566b3    or   x13, x10, x1
000003f4: 38312a23    sw   x3, 916(x2)
000003f8: 4d024913    xori x18, x4, 1232
000003fc: f1412583    lw   x11, -236(x2)
00000400: 015a8263    beq  x21, x21, 4
00000404: cb812403    lw   x8, -840(x2)
00000408: a6947313    andi x6, x8, -1431
0000040c: 25c12a23    sw   x28, 596(x2)
00000410: a2f5c893    xori x17, x11, -1489
00000414: 0124f1b3    and  x3, x9, x18
00000418: 12c12183    lw   x3, 300(x2)
0000041c: 6d312623    sw   x19, 1740(x2)
00000420: 01fd6db3    or   x27, x26, x31
00000424: cdf12823    sw   x31, -816(x2)
00000428: 01c21263    bne  x4, x28, 4
0000042c: fed18c13    addi x24, x3, -19
00000430: 3ee8ef93    ori  x31, x17, 1006
00000434: 9ac12d03    lw   x26, -1620(x2)
00000438: 0175c733    xor  x14, x11, x23
0000043c: a9b76a13    ori  x20, x14, -1381
00000440: c3412023    sw   x20, -992(x2)
00000444: 40c12a83    lw   x21, 1036(x2)
00000448: 011b6633    or   x12, x22, x17
0000044c: 78f66393    ori  x7, x12, 1935
00000450: 01d3fdb3    and  x27, x7, x29
00000454: 01edfcb3    and  x25, x27, x30
00000458: d4c2fc93    andi x25, x5, -692
0000045c: 11eb4d13    xori x26, x22, 286
00000460: 70296f13    ori  x30, x18, 1794
00000464: 6d912223    sw   x25, 1732(x2)
00000468: d3b12623    sw   x27, -724(x2)
0000046c: 9aba6b13    ori  x22, x20, -1621
00000470: 01cf4233    xor  x4, x30, x28
00000474: 66012e83    lw   x29, 1632(x2)
00000478: 32f1cf93    xori x31, x3, 815
0000047c: 01ff8263    beq  x31, x31, 4
00000480: f2c12083    lw   x1, -212(x2)
00000484: 017b8263    beq  x23, x23, 4
00000488: c7912823    sw   x25, -912(x2)
0000048c: 00178533    add  x10, x15, x1
00000490: b9912623    sw   x25, -1140(x2)
00000494: 00850833    add  x16, x10, x8
00000498: 0151e9b3    or   x19, x3, x21
0000049c: 1529f713    andi x14, x19, 338
000004a0: df612e23    sw   x22, -516(x2)
000004a4: a2812f83    lw   x31, -1496(x2)
000004a8: 01d8e833    or   x16, x17, x29
000004ac: 01c12c03    lw   x24, 28(x2)
000004b0: fb412c03    lw   x24, -76(x2)
000004b4: 00b98263    beq  x19, x11, 4
000004b8: 01290263    beq  x18, x18, 4
000004bc: 75512823    sw   x21, 1872(x2)
000004c0: 0022e633    or   x12, x5, x2
000004c4: 01f67533    and  x10, x12, x31
000004c8: 00212c23    sw   x2, 24(x2)
000004cc: 36c12e03    lw   x28, 876(x2)
000004d0: bf812d03    lw   x26, -1032(x2)
000004d4: 44b12e23    sw   x11, 1116(x2)
000004d8: 3de12023    sw   x30, 960(x2)
000004dc: 0034e833    or   x16, x9, x3
000004e0: 24412203    lw   x4, 580(x2)
000004e4: 64412a03    lw   x20, 1604(x2)
000004e8: 64c12103    lw   x2, 1612(x2)
000004ec: 0d512423    sw   x21, 200(x2)
000004f0: 016f8ab3    add  x21, x31, x22
000004f4: c91c0e93    addi x29, x24, -879
000004f8: f8d10d13    addi x26, x2, -115
000004fc: 005fcbb3    xor  x23, x31, x5
00000500: 0057c9b3    xor  x19, x15, x5
00000504: 8d448c93    addi x25, x9, -1836
00000508: 01acf4b3    and  x9, x25, x26
0000050c: 7b412383    lw   x7, 1972(x2)
00000510: d9d12223    sw   x29, -636(x2)
00000514: 31c12b83    lw   x23, 796(x2)
00000518: d0812b83    lw   x23, -760(x2)
0000051c: f2c12203    lw   x4, -212(x2)
00000520: 8cc12a23    sw   x12, -1836(x2)
00000524: c3412223    sw   x20, -988(x2)
00000528: 4bc12b83    lw   x23, 1212(x2)
0000052c: a4512e23    sw   x5, -1444(x2)
00000530: 00faec33    or   x24, x21, x15
00000534: 5d8df893    andi x17, x27, 1496
00000538: 00421263    bne  x4, x4, 4
0000053c: 1165ee93    ori  x29, x11, 278
00000540: c0012a83    lw   x21, -1024(x2)
00000544: d7a8fb93    andi x23, x17, -646
00000548: 00358133    add  x2, x11, x3
0000054c: 8f84c893    xori x17, x9, -1800
00000550: 77412403    lw   x8, 1908(x2)
00000554: a5712a23    sw   x23, -1452(x2)
00000558: 00f79263    bne  x15, x15, 4
0000055c: 237a6c93    ori  x25, x20, 567
00000560: b656e593    ori  x11, x13, -1179
00000564: fe512623    sw   x5, -20(x2)
00000568: 01d51263    bne  x10, x29, 4
0000056c: 201e6393    ori  x7, x28, 513
00000570: 7fd12a23    sw   x29, 2036(x2)
00000574: 0120e833    or   x16, x1, x18
00000578: 00a60933    add  x18, x12, x10
0000057c: 13212223    sw   x18, 292(x2)
00000580: 00421263    bne  x4, x4, 4
00000584: 3a212a23    sw   x2, 948(x2)
00000588: 13c9e193    ori  x3, x19, 316
0000058c: bcc12283    lw   x5, -1076(x2)
00000590: 3b012c83    lw   x25, 944(x2)
00000594: 94212423    sw   x2, -1720(x2)
00000598: 017b9263    bne  x23, x23, 4
0000059c: 2312e393    ori  x7, x5, 561
000005a0: 2c012883    lw   x17, 704(x2)
000005a4: 73012d83    lw   x27, 1840(x2)
000005a8: 013de533    or   x10, x27, x19
000005ac: 010bc4b3    xor  x9, x23, x16
000005b0: 75fc8313    addi x6, x25, 1887
000005b4: cbb12c23    sw   x27, -840(x2)
000005b8: 401108b3    sub  x17, x2, x1
000005bc: 717bce93    xori x29, x23, 1815
000005c0: 266bfb13    andi x22, x23, 614
000005c4: 2f4fc913    xori x18, x31, 756
000005c8: 77c12383    lw   x7, 1916(x2)
000005cc: 13f56c13    ori  x24, x10, 319
000005d0: 75812603    lw   x12, 1880(x2)
000005d4: 13412203    lw   x4, 308(x2)
000005d8: 31f12423    sw   x31, 776(x2)
000005dc: 95812503    lw   x10, -1704(x2)
000005e0: 01ef1263    bne  x30, x30, 4
000005e4: 0b13e293    ori  x5, x7, 177
000005e8: 99f2fb93    andi x23, x5, -1633
000005ec: 00f40633    add  x12, x8, x15
000005f0: 019c8263    beq  x25, x25, 4
000005f4: 75512223    sw   x21, 1860(x2)
000005f8: 24412503    lw   x10, 580(x2)
000005fc: d9a18793    addi x15, x3, -614
00000600: 01af6833    or   x16, x30, x26
00000604: 93012083    lw   x1, -1744(x2)
00000608: 11812783    lw   x15, 280(x2)
0000060c: 0bb84393    xori x7, x16, 187
00000610: 03712c23    sw   x23, 56(x2)
00000614: 17012983    lw   x19, 368(x2)
00000618: 5b112623    sw   x17, 1452(x2)
0000061c: 40568933    sub  x18, x13, x5
00000620: f8f12423    sw   x15, -120(x2)
00000624: 1a812983    lw   x19, 424(x2)
00000628: 015a8263    beq  x21, x21, 4
0000062c: 00420263    beq  x4, x4, 4
00000630: bc012a83    lw   x21, -1088(x2)
00000634: c46a7813    andi x16, x20, -954
00000638: 54c12b83    lw   x23, 1356(x2)
0000063c: a9e97893    andi x17, x18, -1378
00000640: 01c189b3    add  x19, x3, x28
00000644: 27f97e93    andi x29, x18, 639
00000648: 01138263    beq  x7, x17, 4
0000064c: 0057e9b3    or   x19, x15, x5
00000650: 1d812e23    sw   x24, 476(x2)
00000654: 01948263    beq  x9, x25, 4
00000658: 31712223    sw   x23, 772(x2)
0000065c: 00411263    bne  x2, x4, 4
00000660: 00e70263    beq  x14, x14, 4
00000664: 3fd12c23    sw   x29, 1016(x2)
00000668: 40312223    sw   x3, 1028(x2)
0000066c: bcbb6313    ori  x6, x22, -1077
00000670: 8ba28593    addi x11, x5, -1862
00000674: f4812c23    sw   x8, -168(x2)
00000678: e0812f03    lw   x30, -504(x2)
0000067c: 88812023    sw   x8, -1920(x2)
00000680: 01526c33    or   x24, x4, x21
00000684: 018c1263    bne  x24, x24, 4
00000688: 412385b3    sub  x11, x7, x18
0000068c: 24012403    lw   x8, 576(x2)
00000690: 19db4493    xori x9, x22, 413
00000694: 7dc4c113    xori x2, x9, 2012
00000698: 23712823    sw   x23, 560(x2)
0000069c: 40812303    lw   x6, 1032(x2)
000006a0: c9ee6d13    ori  x26, x28, -866
000006a4: 01370263    beq  x14, x19, 4
000006a8: a874ef93    ori  x31, x9, -1401
000006ac: 09790693    addi x13, x18, 151
000006b0: 41ae0cb3    sub  x25, x28, x26
000006b4: ebc12623    sw   x28, -340(x2)
000006b8: 41f503b3    sub  x7, x10, x31
000006bc: 019c8263    beq  x25, x25, 4
000006c0: fa8bc913    xori x18, x23, -88
000006c4: 1dc12483    lw   x9, 476(x2)
000006c8: 01a7eeb3    or   x29, x15, x26
000006cc: 97312a23    sw   x19, -1676(x2)
000006d0: 058c0913    addi x18, x24, 88
000006d4: ce012383    lw   x7, -800(x2)
000006d8: 2cddc493    xori x9, x27, 717
000006dc: 6a612e23    sw   x6, 1724(x2)
000006e0: 7a067313    andi x6, x12, 1952
000006e4: 002aceb3    xor  x29, x21, x2
000006e8: 00eb02b3    add  x5, x22, x14
000006ec: effb8893    addi x17, x23, -257
000006f0: 015a9263    bne  x21, x21, 4
000006f4: 0130c7b3    xor  x15, x1, x19
000006f8: 12c12083    lw   x1, 300(x2)
000006fc: b1570913    addi x18, x14, -1259
00000700: 35412483    lw   x9, 852(x2)
00000704: 01ff8263    beq  x31, x31, 4
00000708: a9412a83    lw   x21, -1388(x2)
0000070c: 00e167b3    or   x15, x2, x14
00000710: 00409263    bne  x1, x4, 4
00000714: b0c12e83    lw   x29, -1268(x2)
00000718: 01839263    bne  x7, x24, 4
0000071c: 01df7933    and  x18, x30, x29
00000720: 001f0263    beq  x30, x1, 4
00000724: a6a12a23    sw   x10, -1420(x2)
00000728: 28d12e23    sw   x13, 668(x2)
0000072c: 0192c6b3    xor  x13, x5, x25
00000730: 0156fdb3    and  x27, x13, x21
00000734: 8f012a83    lw   x21, -1808(x2)
00000738: f4c12623    sw   x12, -180(x2)
0000073c: df612823    sw   x22, -528(x2)
00000740: 00a6ce33    xor  x28, x13, x10
00000744: 01ce1263    bne  x28, x28, 4
00000748: 222ac613    xori x12, x21, 546
0000074c: 00c61263    bne  x12, x12, 4
00000750: dff20793    addi x15, x4, -513
00000754: 003706b3    add  x13, x14, x3
00000758: 45012083    lw   x1, 1104(x2)
0000075c: 01e0c4b3    xor  x9, x1, x30
00000760: 09a6f513    andi x10, x13, 154
00000764: 0d454793    xori x15, x10, 212
00000768: 00c12f83    lw   x31, 12(x2)
0000076c: b6cfc293    xori x5, x31, -1172
00000770: 28f12423    sw   x15, 648(x2)
00000774: 242dea13    ori  x20, x27, 578
00000778: 2365c513    xori x10, x11, 566
0000077c: 408fe493    ori  x9, x31, 1032
00000780: 8dc27c93    andi x25, x4, -1828
00000784: a3412d83    lw   x27, -1484(x2)
00000788: c7512a23    sw   x21, -908(x2)
0000078c: 4104c193    xori x3, x9, 1040
00000790: 57212023    sw   x18, 1376(x2)
00000794: 01ff8263    beq  x31, x31, 4
00000798: 00841263    bne  x8, x8, 4
0000079c: 016a4c33    xor  x24, x20, x22
000007a0: b6112023    sw   x1, -1184(x2)
000007a4: 00840263    beq  x8, x8, 4
000007a8: ccc12823    sw   x12, -816(x2)
000007ac: 00e871b3    and  x3, x16, x14
000007b0: 1fb1e613    ori  x12, x3, 507
000007b4: 73c12203    lw   x4, 1852(x2)
000007b8: 0025fe33    and  x28, x11, x2
000007bc: 00b58263    beq  x11, x11, 4
000007c0: d1fc7593    andi x11, x24, -737
000007c4: de612223    sw   x6, -540(x2)
000007c8: 8f812623    sw   x24, -1812(x2)
000007cc: 5ad12e23    sw   x13, 1468(x2)
000007d0: 00738263    beq  x7, x7, 4
000007d4: 26ed6393    ori  x7, x26, 622
000007d8: 21412223    sw   x20, 516(x2)
000007dc: 00c6ff33    and  x30, x13, x12
000007e0: ab412b03    lw   x22, -1356(x2)
000007e4: 016b0263    beq  x22, x22, 4
000007e8: 57412023    sw   x20, 1376(x2)
000007ec: df012823    sw   x16, -528(x2)
000007f0: 7abbf513    andi x10, x23, 1963
000007f4: 9bc12a23    sw   x28, -1612(x2)
000007f8: c4712e23    sw   x7, -932(x2)
000007fc: 51612a23    sw   x22, 1300(x2)
00000800: 7a612023    sw   x6, 1952(x2)
00000804: 00909263    bne  x1, x9, 4
00000808: 00840263    beq  x8, x8, 4
0000080c: b9312e23    sw   x19, -1124(x2)
00000810: 019c9263    bne  x25, x25, 4
00000814: 012ce3b3    or   x7, x25, x18
00000818: 01bd8263    beq  x27, x27, 4
0000081c: 06c12423    sw   x12, 104(x2)
00000820: bd912023    sw   x25, -1088(x2)
00000824: 5b012303    lw   x6, 1456(x2)
00000828: 339d8913    addi x18, x27, 825
0000082c: 15c12503    lw   x10, 348(x2)
00000830: 41a88e33    sub  x28, x17, x26
00000834: 00548263    beq  x9, x5, 4
00000838: fe812c83    lw   x25, -24(x2)
0000083c: 54012683    lw   x13, 1344(x2)
00000840: 011eecb3    or   x25, x29, x17
00000844: 68c12f83    lw   x31, 1676(x2)
00000848: 015e6bb3    or   x23, x28, x21
0000084c: eff12c23    sw   x31, -264(x2)
00000850: 08b12a23    sw   x11, 148(x2)
00000854: 2ff5cf13    xori x30, x11, 767
00000858: 00421263    bne  x4, x4, 4
0000085c: 00ff1263    bne  x30, x15, 4
00000860: 01ff8263    beq  x31, x31, 4
00000864: afc56b13    ori  x22, x10, -1284
00000868: 006b0263    beq  x22, x6, 4
0000086c: aeb54c13    xori x24, x10, -1301
00000870: 413c0433    sub  x8, x24, x19
00000874: bd812e03    lw   x28, -1064(x2)
00000878: adb1cc93    xori x25, x3, -1317
0000087c: 00561263    bne  x12, x5, 4
00000880: a30cf893    andi x17, x25, -1488
00000884: 33812e23    sw   x24, 828(x2)
00000888: 628c4e93    xori x29, x24, 1576
0000088c: 449e8613    addi x12, x29, 1097
00000890: ab22e493    ori  x9, x5, -1358
00000894: 8d812e03    lw   x28, -1832(x2)
00000898: 1753cb13    xori x22, x7, 373
0000089c: 459b4213    xori x4, x22, 1113
000008a0: 01e240b3    xor  x1, x4, x30
000008a4: 56c12a23    sw   x12, 1396(x2)
000008a8: a4112a23    sw   x1, -1452(x2)
000008ac: ee412103    lw   x2, -284(x2)
000008b0: 54812703    lw   x14, 1352(x2)
000008b4: 01290263    beq  x18, x18, 4
000008b8: 01f543b3    xor  x7, x10, x31
000008bc: a0a12e23    sw   x10, -1508(x2)
000008c0: fd2c0193    addi x3, x24, -46
000008c4: 014a1263    bne  x20, x20, 4
000008c8: 867b0c13    addi x24, x22, -1945
000008cc: 018c1263    bne  x24, x24, 4
000008d0: d5412603    lw   x12, -684(x2)
000008d4: bc412c83    lw   x25, -1084(x2)
000008d8: a0812483    lw   x9, -1528(x2)
000008dc: 69112823    sw   x17, 1680(x2)
000008e0: d0886493    ori  x9, x16, -760
000008e4: 419b08b3    sub  x17, x22, x25
000008e8: 40288933    sub  x18, x17, x2
000008ec: 01b34c33    xor  x24, x6, x27
000008f0: 23c5c493    xori x9, x11, 572
000008f4: 40920e33    sub  x28, x4, x9
000008f8: 00d69263    bne  x13, x13, 4
000008fc: 27812183    lw   x3, 632(x2)
00000900: 00739263    bne  x7, x7, 4
00000904: 3d312423    sw   x19, 968(x2)
00000908: cd1cf093    andi x1, x25, -815
0000090c: 01290263    beq  x18, x18, 4
00000910: 1c412a23    sw   x4, 468(x2)
00000914: 7bf12e23    sw   x31, 1980(x2)
00000918: 00328263    beq  x5, x3, 4
0000091c: 3ef12423    sw   x15, 1000(x2)
00000920: 0061cbb3    xor  x23, x3, x6
00000924: 01398263    beq  x19, x19, 4
00000928: 49012b83    lw   x23, 1168(x2)
0000092c: f7812183    lw   x3, -136(x2)
00000930: 404c83b3    sub  x7, x25, x4
00000934: ea412783    lw   x15, -348(x2)
00000938: 41b20bb3    sub  x23, x4, x27
0000093c: 41ca0f33    sub  x30, x20, x28
00000940: 00e40263    beq  x8, x14, 4
00000944: 4f048e93    addi x29, x9, 1264
00000948: 00446e33    or   x28, x8, x4
0000094c: e5717e13    andi x28, x2, -425
00000950: 013fc4b3    xor  x9, x31, x19
00000954: 00319263    bne  x3, x3, 4
00000958: be812103    lw   x2, -1048(x2)
0000095c: 01ef1263    bne  x30, x30, 4
00000960: d8c12223    sw   x12, -636(x2)
00000964: 0f412783    lw   x15, 244(x2)
00000968: 014a1263    bne  x20, x20, 4
0000096c: 9e312823    sw   x3, -1552(x2)
00000970: e7512023    sw   x21, -416(x2)
00000974: 43d88d93    addi x27, x17, 1085
00000978: 31e12023    sw   x30, 768(x2)
0000097c: 0a612223    sw   x6, 164(x2)
00000980: 014a1263    bne  x20, x20, 4
00000984: 01080263    beq  x16, x16, 4
00000988: 08727993    andi x19, x4, 135
0000098c: 35a14f93    xori x31, x2, 858
00000990: 37b36f93    ori  x31, x6, 891
00000994: 7c067993    andi x19, x12, 1984
00000998: 415184b3    sub  x9, x3, x21
0000099c: e7012d03    lw   x26, -400(x2)
000009a0: 9e412083    lw   x1, -1564(x2)
000009a4: 3ad08213    addi x4, x1, 941
000009a8: 00a6f633    and  x12, x13, x10
000009ac: 79512a23    sw   x21, 1940(x2)
000009b0: f2412b03    lw   x22, -220(x2)
000009b4: c1012303    lw   x6, -1008(x2)
000009b8: 90612423    sw   x6, -1784(x2)
000009bc: 7e0f0293    addi x5, x30, 2016
000009c0: 00660263    beq  x12, x6, 4
000009c4: 64812083    lw   x1, 1608(x2)
000009c8: 00a0fe33    and  x28, x1, x10
000009cc: 01ce1263    bne  x28, x28, 4
000009d0: 7dd12223    sw   x29, 1988(x2)
000009d4: b3b12e23    sw   x27, -1220(x2)
000009d8: 670e7193    andi x3, x28, 1648
000009dc: 00108263    beq  x1, x1, 4
000009e0: 00730263    beq  x6, x7, 4
000009e4: 014efab3    and  x21, x29, x20
000009e8: d0674113    xori x2, x14, -762
000009ec: 07d14b93    xori x23, x2, 125
000009f0: 013be933    or   x18, x23, x19
000009f4: 003665b3    or   x11, x12, x3
000009f8: 8d280393    addi x7, x16, -1838
000009fc: 01d3e233    or   x4, x7, x29
00000a00: ae812a83    lw   x21, -1304(x2)
00000a04: 3c612823    sw   x6, 976(x2)
00000a08: 6e912023    sw   x9, 1760(x2)
00000a0c: 41a48c33    sub  x24, x9, x26
00000a10: 00f60263    beq  x12, x15, 4
00000a14: 57f12223    sw   x31, 1380(x2)
00000a18: f9012423    sw   x16, -120(x2)
00000a1c: 0146cfb3    xor  x31, x13, x20
00000a20: 65ea0313    addi x6, x20, 1630
00000a24: 95d3f793    andi x15, x7, -1699
00000a28: 0407f593    andi x11, x15, 64
00000a2c: 0131e733    or   x14, x3, x19
00000a30: 87a12223    sw   x26, -1948(x2)
00000a34: b8e12c23    sw   x14, -1128(x2)
00000a38: 01498db3    add  x27, x19, x20
00000a3c: 52412483    lw   x9, 1316(x2)
00000a40: 92612823    sw   x6, -1744(x2)
00000a44: 92d12e23    sw   x13, -1732(x2)
00000a48: 73458f93    addi x31, x11, 1844
00000a4c: 1b012503    lw   x10, 432(x2)
00000a50: 40550633    sub  x12, x10, x5
00000a54: 09c12c03    lw   x24, 156(x2)
00000a58: ede12023    sw   x30, -320(x2)
00000a5c: 3fb12a23    sw   x27, 1012(x2)
00000a60: 01ad1263    bne  x26, x26, 4
00000a64: d8f68393    addi x7, x13, -625
00000a68: 69b10193    addi x3, x2, 1691
00000a6c: 6d812883    lw   x17, 1752(x2)
00000a70: 40cb08b3    sub  x17, x22, x12
00000a74: 32c12823    sw   x12, 816(x2)
00000a78: ae412503    lw   x10, -1308(x2)
00000a7c: 01a50263    beq  x10, x26, 4
00000a80: 09cafb13    andi x22, x21, 156
00000a84: 016c8263    beq  x25, x22, 4
00000a88: f2928513    addi x10, x5, -215
00000a8c: 58c12e83    lw   x29, 1420(x2)
00000a90: 1ab4cb93    xori x23, x9, 427
00000a94: 01198c33    add  x24, x19, x17
00000a98: 18c12b03    lw   x22, 396(x2)
00000a9c: 015b1263    bne  x22, x21, 4
00000aa0: e0412283    lw   x5, -508(x2)
00000aa4: 23612c23    sw   x22, 568(x2)
00000aa8: 16912a23    sw   x9, 372(x2)
00000aac: 93312023    sw   x19, -1760(x2)
00000ab0: f1d9eb93    ori  x23, x19, -227
00000ab4: 19812e03    lw   x28, 408(x2)
00000ab8: b1fe6813    ori  x16, x28, -1249
00000abc: adb86413    ori  x8, x16, -1317
00000ac0: 28c12c23    sw   x12, 664(x2)
00000ac4: bd012223    sw   x16, -1084(x2)
00000ac8: 015a8263    beq  x21, x21, 4
00000acc: 0123e5b3    or   x11, x7, x18
00000ad0: 2f72f793    andi x15, x5, 759
00000ad4: dc57ed13    ori  x26, x15, -571
00000ad8: 9dbd6093    ori  x1, x26, -1573
00000adc: 7aacfd93    andi x27, x25, 1962
00000ae0: 014a1263    bne  x20, x20, 4
00000ae4: 44112223    sw   x1, 1092(x2)
00000ae8: 00139263    bne  x7, x1, 4
00000aec: 82188b13    addi x22, x17, -2015
00000af0: 1fc12283    lw   x5, 508(x2)
00000af4: d5812183    lw   x3, -680(x2)
00000af8: 2ce12623    sw   x14, 716(x2)
00000afc: 7ac12603    lw   x12, 1964(x2)
00000b00: 88812e23    sw   x8, -1892(x2)
00000b04: d6828213    addi x4, x5, -664
00000b08: 03912623    sw   x25, 44(x2)
00000b0c: 01610eb3    add  x29, x2, x22
00000b10: 62d12a23    sw   x13, 1588(x2)
00000b14: ce712223    sw   x7, -796(x2)
00000b18: 00eafc33    and  x24, x21, x14
00000b1c: b5bc4893    xori x17, x24, -1189
00000b20: 01120263    beq  x4, x17, 4
00000b24: e7412603    lw   x12, -396(x2)
00000b28: eb712223    sw   x23, -348(x2)
00000b2c: 86858b93    addi x23, x11, -1944
00000b30: 017b9263    bne  x23, x23, 4
00000b34: 01e18533    add  x10, x3, x30
00000b38: 6d812103    lw   x2, 1752(x2)
00000b3c: 00d17e33    and  x28, x2, x13
00000b40: 00120f33    add  x30, x4, x1
00000b44: 37012e83    lw   x29, 880(x2)
00000b48: 01bef5b3    and  x11, x29, x27
00000b4c: 0bb12823    sw   x27, 176(x2)
00000b50: 57512e23    sw   x21, 1404(x2)
00000b54: 41830d33    sub  x26, x6, x24
00000b58: 550d0f93    addi x31, x26, 1360
00000b5c: dd412623    sw   x20, -564(x2)
00000b60: 41160933    sub  x18, x12, x17
00000b64: 00990bb3    add  x23, x18, x9
00000b68: b0cb6713    ori  x14, x22, -1268
00000b6c: cdb12023    sw   x27, -832(x2)
00000b70: 015e8333    add  x6, x29, x21
00000b74: 7bb80593    addi x11, x16, 1979
00000b78: 0085ca33    xor  x20, x11, x8
00000b7c: 01046e33    or   x28, x8, x16
00000b80: 01080263    beq  x16, x16, 4
00000b84: 00dc07b3    add  x15, x24, x13
00000b88: 0157cbb3    xor  x23, x15, x21
00000b8c: 2ec12423    sw   x12, 744(x2)
00000b90: 29fdc913    xori x18, x27, 671
00000b94: 67812203    lw   x4, 1656(x2)
00000b98: 00d27eb3    and  x29, x4, x13
00000b9c: b6412103    lw   x2, -1180(x2)
00000ba0: b6912623    sw   x9, -1172(x2)
00000ba4: 0083e8b3    or   x17, x7, x8
00000ba8: 0025ebb3    or   x23, x11, x2
00000bac: 6b612023    sw   x22, 1696(x2)
00000bb0: 8238c913    xori x18, x17, -2013
00000bb4: db712423    sw   x23, -600(x2)
00000bb8: 465c0b13    addi x22, x24, 1125
00000bbc: 57412223    sw   x20, 1380(x2)
00000bc0: 4bbce593    ori  x11, x25, 1211
00000bc4: 1902ce13    xori x28, x5, 400
00000bc8: eb5bfa13    andi x20, x23, -331
00000bcc: 250f7b93    andi x23, x30, 592
00000bd0: 55612c23    sw   x22, 1368(x2)
00000bd4: 58412d03    lw   x26, 1412(x2)
00000bd8: 01ad0263    beq  x26, x26, 4
00000bdc: d2412503    lw   x10, -732(x2)
00000be0: e8412c83    lw   x25, -380(x2)
00000be4: 01d7cbb3    xor  x23, x15, x29
00000be8: f9112c23    sw   x17, -104(x2)
00000bec: 98012f03    lw   x30, -1664(x2)
00000bf0: 9b812083    lw   x1, -1608(x2)
00000bf4: f3e12a23    sw   x30, -204(x2)
00000bf8: e4812c83    lw   x25, -440(x2)
00000bfc: dfb78313    addi x6, x15, -517
00000c00: 00211263    bne  x2, x2, 4
00000c04: 82c12583    lw   x11, -2004(x2)
00000c08: 9a016d13    ori  x26, x2, -1632
00000c0c: 7b012d03    lw   x26, 1968(x2)
00000c10: f0812f83    lw   x31, -248(x2)
00000c14: 01ff9263    bne  x31, x31, 4
00000c18: 0086ffb3    and  x31, x13, x8
00000c1c: 16412383    lw   x7, 356(x2)
00000c20: 01780633    add  x12, x16, x23
00000c24: 245a0693    addi x13, x20, 581
00000c28: 10c12083    lw   x1, 268(x2)
00000c2c: 78212823    sw   x2, 1936(x2)
00000c30: aa2ae213    ori  x4, x21, -1374
00000c34: 00820c33    add  x24, x4, x8
00000c38: b4712823    sw   x7, -1200(x2)
00000c3c: a5812623    sw   x24, -1460(x2)
00000c40: 28212e23    sw   x2, 668(x2)
00000c44: 00211263    bne  x2, x2, 4
00000c48: 50b9e693    ori  x13, x19, 1291
00000c4c: 0175e233    or   x4, x11, x23
00000c50: 002a4cb3    xor  x25, x20, x2
00000c54: 01b8fbb3    and  x23, x17, x27
00000c58: 00dc9263    bne  x25, x13, 4
00000c5c: d1212023    sw   x18, -768(x2)
00000c60: 17f12823    sw   x31, 368(x2)
00000c64: 85812903    lw   x18, -1960(x2)
00000c68: 01514733    xor  x14, x2, x21
00000c6c: ec656793    ori  x15, x10, -314
00000c70: f102fa93    andi x21, x5, -240
00000c74: 01034bb3    xor  x23, x6, x16
00000c78: b2412383    lw   x7, -1244(x2)
00000c7c: c1812b03    lw   x22, -1000(x2)
00000c80: 014a0263    beq  x20, x20, 4
00000c84: 1c812b83    lw   x23, 456(x2)
00000c88: 5b412303    lw   x6, 1460(x2)
00000c8c: 0da34e13    xori x28, x6, 218
00000c90: 6cf12623    sw   x15, 1740(x2)
00000c94: b6612c23    sw   x6, -1160(x2)
00000c98: c7812e83    lw   x29, -904(x2)
00000c9c: 01ee80b3    add  x1, x29, x30
00000ca0: ede12623    sw   x30, -308(x2)
00000ca4: 00949263    bne  x9, x9, 4
00000ca8: 48c12403    lw   x8, 1164(x2)
00000cac: c4812783    lw   x15, -952(x2)
00000cb0: 00c60263    beq  x12, x12, 4
00000cb4: 647d7313    andi x6, x26, 1607
00000cb8: 37b34113    xori x2, x6, 891
00000cbc: 00d174b3    and  x9, x2, x13
00000cc0: 46812803    lw   x16, 1128(x2)
00000cc4: b4c12b83    lw   x23, -1204(x2)
00000cc8: d9012683    lw   x13, -624(x2)
00000ccc: 009ac733    xor  x14, x21, x9
00000cd0: 30812803    lw   x16, 776(x2)
00000cd4: d4c0c493    xori x9, x1, -692
00000cd8: dfb4f313    andi x6, x9, -517
00000cdc: 29124c93    xori x25, x4, 657
00000ce0: eb312e23    sw   x19, -324(x2)
00000ce4: 8a812a23    sw   x8, -1868(x2)
00000ce8: 01398263    beq  x19, x19, 4
00000cec: d5210513    addi x10, x2, -686
00000cf0: 0036f433    and  x8, x13, x3
00000cf4: d6812a23    sw   x8, -652(x2)
00000cf8: 076a7313    andi x6, x20, 118
00000cfc: 40d78733    sub  x14, x15, x13
00000d00: 00e71263    bne  x14, x14, 4
00000d04: 410a0fb3    sub  x31, x20, x16
00000d08: 01ad0263    beq  x26, x26, 4
00000d0c: 016b0263    beq  x22, x22, 4
00000d10: 56c12a23    sw   x12, 1396(x2)
00000d14: f5f12a23    sw   x31, -172(x2)
00000d18: 33312a23    sw   x19, 820(x2)
00000d1c: 005f6533    or   x10, x30, x5
00000d20: 014e7fb3    and  x31, x28, x20
00000d24: 0120c2b3    xor  x5, x1, x18
00000d28: 51412603    lw   x12, 1300(x2)
00000d2c: 05c12e03    lw   x28, 92(x2)
00000d30: 4b412c83    lw   x25, 1204(x2)
00000d34: dac12c23    sw   x12, -584(x2)
00000d38: 1d012983    lw   x19, 464(x2)
00000d3c: f5ac0793    addi x15, x24, -166
00000d40: 2d424d93    xori x27, x4, 724
00000d44: 40db8b33    sub  x22, x23, x13
00000d48: 016b1263    bne  x22, x22, 4
00000d4c: 00948263    beq  x9, x9, 4
00000d50: 4d412823    sw   x20, 1232(x2)
00000d54: 416508b3    sub  x17, x10, x22
00000d58: e3812103    lw   x2, -456(x2)
00000d5c: 927bf613    andi x12, x23, -1753
00000d60: 00c61263    bne  x12, x12, 4
00000d64: 4f312c23    sw   x19, 1272(x2)
00000d68: 013085b3    add  x11, x1, x19
00000d6c: 31c12f83    lw   x31, 796(x2)
00000d70: 4edfc993    xori x19, x31, 1261
00000d74: 0039c933    xor  x18, x19, x3
00000d78: 00012b83    lw   x23, 0(x2)
00000d7c: 6ae86b93    ori  x23, x16, 1710
00000d80: ba912c23    sw   x9, -1096(x2)
00000d84: 008a8263    beq  x21, x8, 4
00000d88: 84c12b83    lw   x23, -1972(x2)
00000d8c: 2e312823    sw   x3, 752(x2)
00000d90: 20c12423    sw   x12, 520(x2)
00000d94: dd812f83    lw   x31, -552(x2)
00000d98: e6812023    sw   x8, -416(x2)
00000d9c: e9c12403    lw   x8, -356(x2)
00000da0: cfc12c83    lw   x25, -772(x2)
00000da4: 83912a23    sw   x25, -1996(x2)
00000da8: 00cfeab3    or   x21, x31, x12
00000dac: 7b412303    lw   x6, 1972(x2)
00000db0: f1912c23    sw   x25, -232(x2)
00000db4: 75f12623    sw   x31, 1868(x2)
00000db8: 49812e03    lw   x28, 1176(x2)
00000dbc: 21712c23    sw   x23, 536(x2)
00000dc0: 016b0263    beq  x22, x22, 4
00000dc4: dfc12903    lw   x18, -516(x2)
00000dc8: 3b412303    lw   x6, 948(x2)
00000dcc: 3ac12e03    lw   x28, 940(x2)
00000dd0: b329fc93    andi x25, x19, -1230
00000dd4: 42712823    sw   x7, 1072(x2)
00000dd8: 84ffc313    xori x6, x31, -1969
00000ddc: 79012503    lw   x10, 1936(x2)
00000de0: 00456cb3    or   x25, x10, x4
00000de4: 73c12d83    lw   x27, 1852(x2)
00000de8: 38c12603    lw   x12, 908(x2)
00000dec: 8a012703    lw   x14, -1888(x2)
00000df0: 11b77613    andi x12, x14, 283
00000df4: a8d12023    sw   x13, -1408(x2)
00000df8: 2cb7f713    andi x14, x15, 715
00000dfc: 006e0633    add  x12, x28, x6
00000e00: 08c12a03    lw   x20, 140(x2)
00000e04: 66812703    lw   x14, 1640(x2)
00000e08: 00d77c93    andi x25, x14, 13
00000e0c: 00630263    beq  x6, x6, 4
00000e10: 01de8263    beq  x29, x29, 4
00000e14: 00d68263    beq  x13, x13, 4
00000e18: 014a1263    bne  x20, x20, 4
00000e1c: 62c12a83    lw   x21, 1580(x2)
00000e20: 91fa8b93    addi x23, x21, -1761
00000e24: 6fc12823    sw   x28, 1776(x2)
00000e28: c5f12823    sw   x31, -944(x2)
00000e2c: 5f112423    sw   x17, 1512(x2)
00000e30: 31c12803    lw   x16, 796(x2)
00000e34: 3b412703    lw   x14, 948(x2)
00000e38: 01c74d33    xor  x26, x14, x28
00000e3c: 01a868b3    or   x17, x16, x26
00000e40: f6412d03    lw   x26, -156(x2)
00000e44: 5ed12e23    sw   x13, 1532(x2)
00000e48: 40812c23    sw   x8, 1048(x2)
00000e4c: 11c76b13    ori  x22, x14, 284
00000e50: dd670293    addi x5, x14, -554
00000e54: 0b712a23    sw   x23, 180(x2)
00000e58: 89c12283    lw   x5, -1892(x2)
00000e5c: 10728513    addi x10, x5, 263
00000e60: 40350333    sub  x6, x10, x3
00000e64: 1fa12c23    sw   x26, 504(x2)
00000e68: 90b12023    sw   x11, -1792(x2)
00000e6c: 002c9263    bne  x25, x2, 4
00000e70: dc712623    sw   x7, -564(x2)
00000e74: 86412223    sw   x4, -1948(x2)
00000e78: 62cbc413    xori x8, x23, 1580
00000e7c: 00478263    beq  x15, x4, 4
00000e80: 25412303    lw   x6, 596(x2)
00000e84: 01ef0263    beq  x30, x30, 4
00000e88: e5812603    lw   x12, -424(x2)
00000e8c: 416387b3    sub  x15, x7, x22
00000e90: 01b4e433    or   x8, x9, x27
00000e94: 01140263    beq  x8, x17, 4
00000e98: 7ff1f213    andi x4, x3, 2047
00000e9c: 00cc8b33    add  x22, x25, x12
00000ea0: 410b0433    sub  x8, x22, x16
00000ea4: 60812c03    lw   x24, 1544(x2)
00000ea8: c4c12483    lw   x9, -948(x2)
00000eac: 7ac12383    lw   x7, 1964(x2)
00000eb0: 0dc12623    sw   x28, 204(x2)
00000eb4: cf5f0793    addi x15, x30, -779
00000eb8: 68412083    lw   x1, 1668(x2)
00000ebc: 3a6c0d13    addi x26, x24, 934
00000ec0: e1112823    sw   x17, -496(x2)
00000ec4: 252ce713    ori  x14, x25, 594
00000ec8: 01188263    beq  x17, x17, 4
00000ecc: e7728213    addi x4, x5, -393
00000ed0: 01399263    bne  x19, x19, 4
00000ed4: 99012603    lw   x12, -1648(x2)
00000ed8: 416608b3    sub  x17, x12, x22
00000edc: 0137fd33    and  x26, x15, x19
00000ee0: 009649b3    xor  x19, x12, x9
00000ee4: 01398263    beq  x19, x19, 4
00000ee8: 41320733    sub  x14, x4, x19
00000eec: 54977c93    andi x25, x14, 1353
00000ef0: 6ac12b83    lw   x23, 1708(x2)
00000ef4: 2cc34b93    xori x23, x6, 716
00000ef8: 35d12223    sw   x29, 836(x2)
00000efc: 53012c83    lw   x25, 1328(x2)
00000f00: 4005fd13    andi x26, x11, 1024
00000f04: 65f12823    sw   x31, 1616(x2)
00000f08: 014c70b3    and  x1, x24, x20
00000f0c: 008573b3    and  x7, x10, x8
00000f10: 01cd9263    bne  x27, x28, 4
00000f14: 93588793    addi x15, x17, -1739
00000f18: 03367d93    andi x27, x12, 51
00000f1c: 26398d93    addi x27, x19, 611
00000f20: 015ec533    xor  x10, x29, x21
00000f24: a9912023    sw   x25, -1408(x2)
00000f28: 019c9263    bne  x25, x25, 4
00000f2c: 418e0ab3    sub  x21, x28, x24
00000f30: 9aa12c23    sw   x10, -1608(x2)
00000f34: f105e293    ori  x5, x11, -240
00000f38: 65912023    sw   x25, 1600(x2)
00000f3c: 40e88533    sub  x10, x17, x14
00000f40: 0145ed33    or   x26, x11, x20
00000f44: 011d6733    or   x14, x26, x17
00000f48: e5012a23    sw   x16, -428(x2)
00000f4c: fc19f193    andi x3, x19, -63
00000f50: 017187b3    add  x15, x3, x23
00000f54: 8c412c83    lw   x25, -1852(x2)
00000f58: caf12423    sw   x15, -856(x2)
00000f5c: 01bd9263    bne  x27, x27, 4
00000f60: 019c0133    add  x2, x24, x25
00000f64: 87016613    ori  x12, x2, -1936
00000f68: 00f79263    bne  x15, x15, 4
00000f6c: 04697993    andi x19, x18, 70
00000f70: 0142efb3    or   x31, x5, x20
00000f74: 00630263    beq  x6, x6, 4
00000f78: 9b012783    lw   x15, -1616(x2)
00000f7c: 00d69263    bne  x13, x13, 4
00000f80: 45c12403    lw   x8, 1116(x2)
00000f84: 010bff33    and  x30, x23, x16
00000f88: 00739263    bne  x7, x7, 4
00000f8c: 008b8933    add  x18, x23, x8
00000f90: 318c0b13    addi x22, x24, 792
00000f94: 9f812a83    lw   x21, -1544(x2)
00000f98: 009ac433    xor  x8, x21, x9
00000f9c: 43b40913    addi x18, x8, 1083
00000fa0: 10500073    wfi
