00000000: fd412403    lw   x8, -44(x2)
00000004: 01340263    beq  x8, x19, 4
00000008: 00810533    add  x10, x2, x8
0000000c: 00a51263    bne  x10, x10, 4
00000010: 01398263    beq  x19, x19, 4
00000014: 2e912023    sw   x9, 736(x2)
00000018: 004f8263    beq  x31, x4, 4
0000001c: 07412d03    lw   x26, 116(x2)
00000020: 003d69b3    or   x19, x26, x3
00000024: e2412b83    lw   x23, -476(x2)
00000028: a8c12e03    lw   x28, -1396(x2)
0000002c: 01ce1263    bne  x28, x28, 4
00000030: 00c61263    bne  x12, x12, 4
00000034: 015b4333    xor  x6, x22, x21
00000038: 00631263    bne  x6, x6, 4
0000003c: 9caae413    ori  x8, x21, -1590
00000040: a1c12383    lw   x7, -1508(x2)
00000044: ecc12a83    lw   x21, -308(x2)
00000048: c8912823    sw   x9, -880(x2)
0000004c: 018c1263    bne  x24, x24, 4
00000050: 38812a23    sw   x8, 916(x2)
00000054: af912423    sw   x25, -1304(x2)
00000058: 00420263    beq  x4, x4, 4
0000005c: 00d76b33    or   x22, x14, x13
00000060: 01790fb3    add  x31, x18, x23
00000064: 01ff8263    beq  x31, x31, 4
00000068: 00631263    bne  x6, x6, 4
0000006c: 18cc8e13    addi x28, x25, 396
00000070: d2be6913    ori  x18, x28, -725
00000074: 00bf48b3    xor  x17, x30, x11
00000078: fa812103    lw   x2, -88(x2)
0000007c: 019108b3    add  x17, x2, x25
00000080: 73597993    andi x19, x18, 1845
00000084: ede12223    sw   x30, -316(x2)
00000088: 4c4c6b13    ori  x22, x24, 1220
0000008c: bc812e23    sw   x8, -1060(x2)
00000090: 00b58263    beq  x11, x11, 4
00000094: 00908233    add  x4, x1, x9
00000098: 7881e413    ori  x8, x3, 1928
0000009c: fda12223    sw   x26, -60(x2)
000000a0: b1a70b93    addi x23, x14, -1254
000000a4: 9b612c23    sw   x22, -1608(x2)
000000a8: 00da8d33    add  x26, x21, x13
000000ac: e16d7913    andi x18, x26, -490
000000b0: 6cc12403    lw   x8, 1740(x2)
000000b4: 012d0263    beq  x26, x18, 4
000000b8: 00390263    beq  x18, x3, 4
000000bc: 01081263    bne  x16, x16, 4
000000c0: 80d12823    sw   x13, -2032(x2)
000000c4: 00ad1263    bne  x26, x10, 4
000000c8: ce712a23    sw   x7, -780(x2)
000000cc: 01ff8263    beq  x31, x31, 4
000000d0: 011149b3    xor  x19, x2, x17
000000d4: 40410b33    sub  x22, x2, x4
000000d8: bdf12a23    sw   x31, -1068(x2)
000000dc: 00344833    xor  x16, x8, x3
000000e0: 05812383    lw   x7, 88(x2)
000000e4: 00738263    beq  x7, x7, 4
000000e8: 21e12e23    sw   x30, 540(x2)
000000ec: 0151ea33    or   x20, x3, x21
000000f0: 00738263    beq  x7, x7, 4
000000f4: 40ce8533    sub  x10, x29, x12
000000f8: 84012b03    lw   x22, -1984(x2)
000000fc: 016b0263    beq  x22, x22, 4
00000100: 01de8263    beq  x29, x29, 4
00000104: 014a1263    bne  x20, x20, 4
00000108: 011a9263    bne  x21, x17, 4
0000010c: 003f1263    bne  x30, x3, 4
00000110: 01a17333    and  x6, x2, x26
00000114: 01331263    bne  x6, x19, 4
00000118: 41320133    sub  x2, x4, x19
0000011c: c0212a23    sw   x2, -1004(x2)
00000120: 01ce8263    beq  x29, x28, 4
00000124: 35138d13    addi x26, x7, 849
00000128: d33d7d93    andi x27, x26, -717
0000012c: 52c0ed93    ori  x27, x1, 1324
00000130: d18ded13    ori  x26, x27, -744
00000134: f0712e23    sw   x7, -228(x2)
00000138: 1c412d83    lw   x27, 452(x2)
0000013c: 00109263    bne  x1, x1, 4
00000140: 01ce1263    bne  x28, x28, 4
00000144: 01189263    bne  x17, x17, 4
00000148: db412983    lw   x19, -588(x2)
0000014c: 00421263    bne  x4, x4, 4
00000150: bad12823    sw   x13, -1104(x2)
00000154: 96812b83    lw   x23, -1688(x2)
00000158: 5cdbe193    ori  x3, x23, 1485
0000015c: bfc12c03    lw   x24, -1028(x2)
00000160: 26d12823    sw   x13, 624(x2)
00000164: 57497b93    andi x23, x18, 1396
00000168: 4feee913    ori  x18, x29, 1278
0000016c: 00739263    bne  x7, x7, 4
00000170: d6e7cb93    xori x23, x15, -658
00000174: afc12d83    lw   x27, -1284(x2)
00000178: 00a50263    beq  x10, x10, 4
0000017c: 00211263    bne  x2, x2, 4
00000180: 00ecefb3    or   x31, x25, x14
00000184: 01ff9263    bne  x31, x31, 4
00000188: 01a287b3    add  x15, x5, x26
0000018c: 99212c23    sw   x18, -1640(x2)
00000190: 01ce0263    beq  x28, x28, 4
00000194: 62812a03    lw   x20, 1576(x2)
00000198: d1812a23    sw   x24, -748(x2)
0000019c: fe812d83    lw   x27, -24(x2)
000001a0: fa912223    sw   x9, -92(x2)
000001a4: f8012483    lw   x9, -128(x2)
000001a8: 40548533    sub  x10, x9, x5
000001ac: 00a51263    bne  x10, x10, 4
000001b0: 54212623    sw   x2, 1356(x2)
000001b4: 00e70263    beq  x14, x14, 4
000001b8: 74112023    sw   x1, 1856(x2)
000001bc: 57212423    sw   x18, 1384(x2)
000001c0: f0594493    xori x9, x18, -251
000001c4: 00949263    bne  x9, x9, 4
000001c8: c1412a23    sw   x20, -1004(x2)
000001cc: 8c312e23    sw   x3, -1828(x2)
000001d0: dc212823    sw   x2, -560(x2)
000001d4: 00b59263    bne  x11, x11, 4
000001d8: 01de9263    bne  x29, x29, 4
000001dc: 00318263    beq  x3, x3, 4
000001e0: 94960d13    addi x26, x12, -1719
000001e4: 014d0263    beq  x26, x20, 4
000001e8: 01080263    beq  x16, x16, 4
000001ec: d5c12a03    lw   x20, -676(x2)
000001f0: 40aa0233    sub  x4, x20, x10
000001f4: 4bf12823    sw   x31, 1200(x2)
000001f8: 1a618e93    addi x29, x3, 422
000001fc: 012ef733    and  x14, x29, x18
00000200: 00e70263    beq  x14, x14, 4
00000204: b6e12023    sw   x14, -1184(x2)
00000208: cee12223    sw   x14, -796(x2)
0000020c: 00989263    bne  x17, x9, 4
00000210: 25012e03    lw   x28, 592(x2)
00000214: 66c12403    lw   x8, 1644(x2)
00000218: 2c112023    sw   x1, 704(x2)
0000021c: ec95c693    xori x13, x11, -311
00000220: 01de9263    bne  x29, x29, 4
00000224: fb988c93    addi x25, x17, -71
00000228: 7b4cc793    xori x15, x25, 1972
0000022c: 00840263    beq  x8, x8, 4
00000230: 01399263    bne  x19, x19, 4
00000234: 34012b83    lw   x23, 832(x2)
00000238: 017b8263    beq  x23, x23, 4
0000023c: 018c0263    beq  x24, x24, 4
00000240: 018c1263    bne  x24, x24, 4
00000244: f47de613    ori  x12, x27, -185
00000248: 00c61263    bne  x12, x12, 4
0000024c: 00210263    beq  x2, x2, 4
00000250: b5c12423    sw   x28, -1208(x2)
00000254: 00a51263    bne  x10, x10, 4
00000258: 01ff9263    bne  x31, x31, 4
0000025c: 00318263    beq  x3, x3, 4
00000260: 405b0e33    sub  x28, x22, x5
00000264: 004e1263    bne  x28, x4, 4
00000268: 66ad4f93    xori x31, x26, 1642
0000026c: 1d312223    sw   x19, 452(x2)
00000270: 416a03b3    sub  x7, x20, x22
00000274: 00738263    beq  x7, x7, 4
00000278: 00e71263    bne  x14, x14, 4
0000027c: 00841263    bne  x8, x8, 4
00000280: 41f784b3    sub  x9, x15, x31
00000284: bacb4913    xori x18, x22, -1108
00000288: 01290263    beq  x18, x18, 4
0000028c: 01531263    bne  x6, x21, 4
00000290: 4e012f83    lw   x31, 1248(x2)
00000294: a9412823    sw   x20, -1392(x2)
00000298: 01571263    bne  x14, x21, 4
0000029c: 01c40263    beq  x8, x28, 4
000002a0: 94812c83    lw   x25, -1720(x2)
000002a4: 0e612223    sw   x6, 228(x2)
000002a8: af012423    sw   x16, -1304(x2)
000002ac: 00b58263    beq  x11, x11, 4
000002b0: 7ca12c23    sw   x10, 2008(x2)
000002b4: 0036e633    or   x12, x13, x3
000002b8: 01d60263    beq  x12, x29, 4
000002bc: 52212c23    sw   x2, 1336(x2)
000002c0: 00c61263    bne  x12, x12, 4
000002c4: 409c89b3    sub  x19, x25, x9
000002c8: 01098263    beq  x19, x16, 4
000002cc: 015a8263    beq  x21, x21, 4
000002d0: 00f541b3    xor  x3, x10, x15
000002d4: 0051ebb3    or   x23, x3, x5
000002d8: 0bc12703    lw   x14, 188(x2)
000002dc: cad12023    sw   x13, -864(x2)
000002e0: 014a0263    beq  x20, x20, 4
000002e4: 2fe12023    sw   x30, 736(x2)
000002e8: 0194f5b3    and  x11, x9, x25
000002ec: ccf12023    sw   x15, -832(x2)
000002f0: 41012783    lw   x15, 1040(x2)
000002f4: f79bce93    xori x29, x23, -135
000002f8: 018c1263    bne  x24, x24, 4
000002fc: 92fb4293    xori x5, x22, -1745
00000300: 0042e9b3    or   x19, x5, x4
00000304: 00528263    beq  x5, x5, 4
00000308: 00bd1263    bne  x26, x11, 4
0000030c: 42812f83    lw   x31, 1064(x2)
00000310: 93412223    sw   x20, -1756(x2)
00000314: 015a9263    bne  x21, x21, 4
00000318: 004c6db3    or   x27, x24, x4
0000031c: d5712823    sw   x23, -688(x2)
00000320: 00108263    beq  x1, x1, 4
00000324: 00c60263    beq  x12, x12, 4
00000328: d9a9f193    andi x3, x19, -614
0000032c: c941c493    xori x9, x3, -876
00000330: 00948263    beq  x9, x9, 4
00000334: d0c12183    lw   x3, -756(x2)
00000338: 00319263    bne  x3, x3, 4
0000033c: e5c12683    lw   x13, -420(x2)
00000340: 00d69263    bne  x13, x13, 4
00000344: 009560b3    or   x1, x10, x9
00000348: 0190c8b3    xor  x17, x1, x25
0000034c: f02cea93    ori  x21, x25, -254
00000350: 01aa8263    beq  x21, x26, 4
00000354: 01aef7b3    and  x15, x29, x26
00000358: 17178593    addi x11, x15, 369
0000035c: 01e29263    bne  x5, x30, 4
00000360: d4012483    lw   x9, -704(x2)
00000364: 2d412d03    lw   x26, 724(x2)
00000368: 4b7d7e93    andi x29, x26, 1207
0000036c: 86912823    sw   x9, -1936(x2)
00000370: 06012983    lw   x19, 96(x2)
00000374: b7412b03    lw   x22, -1164(x2)
00000378: 012b1263    bne  x22, x18, 4
0000037c: 01f46c33    or   x24, x8, x31
00000380: 930c0513    addi x10, x24, -1744
00000384: 00541263    bne  x8, x5, 4
00000388: cfd12823    sw   x29, -784(x2)
0000038c: 51f12623    sw   x31, 1292(x2)
00000390: ef012783    lw   x15, -272(x2)
00000394: 00f79263    bne  x15, x15, 4
00000398: 9f012683    lw   x13, -1552(x2)
0000039c: af612623    sw   x22, -1300(x2)
000003a0: 015a8263    beq  x21, x21, 4
000003a4: 00b58263    beq  x11, x11, 4
000003a8: 0083cab3    xor  x21, x7, x8
000003ac: cb812d03    lw   x26, -840(x2)
000003b0: 005e1263    bne  x28, x5, 4
000003b4: 40120733    sub  x14, x4, x1
000003b8: 00b59263    bne  x11, x11, 4
000003bc: 018c0263    beq  x24, x24, 4
000003c0: 39112a23    sw   x17, 916(x2)
000003c4: 1a678813    addi x16, x15, 422
000003c8: 01d81263    bne  x16, x29, 4
000003cc: 62312823    sw   x3, 1584(x2)
000003d0: c0958493    addi x9, x11, -1015
000003d4: 43012a03    lw   x20, 1072(x2)
000003d8: b3a12623    sw   x26, -1236(x2)
000003dc: 673e4f13    xori x30, x28, 1651
000003e0: 01ef1263    bne  x30, x30, 4
000003e4: 21612023    sw   x22, 512(x2)
000003e8: 01ff9263    bne  x31, x31, 4
000003ec: 01bd9263    bne  x27, x27, 4
000003f0: 018c0263    beq  x24, x24, 4
000003f4: be812703    lw   x14, -1048(x2)
000003f8: 9bf12223    sw   x31, -1628(x2)
000003fc: 00a50263    beq  x10, x10, 4
00000400: 01080263    beq  x16, x16, 4
00000404: 01291263    bne  x18, x18, 4
00000408: 8d412a23    sw   x20, -1836(x2)
0000040c: 8ec12303    lw   x6, -1812(x2)
00000410: 33812083    lw   x1, 824(x2)
00000414: 00108263    beq  x1, x1, 4
00000418: 003a8263    beq  x21, x3, 4
0000041c: d0812603    lw   x12, -760(x2)
00000420: 01560263    beq  x12, x21, 4
00000424: a9c28513    addi x10, x5, -1380
00000428: 54912023    sw   x9, 1344(x2)
0000042c: 01189263    bne  x17, x17, 4
00000430: 016b1263    bne  x22, x22, 4
00000434: 40e50b33    sub  x22, x10, x14
00000438: 01ab0263    beq  x22, x26, 4
0000043c: bd412083    lw   x1, -1068(x2)
00000440: f5d0c913    xori x18, x1, -163
00000444: a4c12683    lw   x13, -1460(x2)
00000448: 00108263    beq  x1, x1, 4
0000044c: 4f712823    sw   x23, 1264(x2)
00000450: 001566b3    or   x13, x10, x1
00000454: 38312a23    sw   x3, 916(x2)
00000458: 4d024913    xori x18, x4, 1232
0000045c: f1412583    lw   x11, -236(x2)
00000460: 015a8263    beq  x21, x21, 4
00000464: cb812403    lw   x8, -840(x2)
00000468: 00840263    beq  x8, x8, 4
0000046c: 41aa8b33    sub  x22, x21, x26
00000470: 25c12a23    sw   x28, 596(x2)
00000474: a2f5c893    xori x17, x11, -1489
00000478: 01188263    beq  x17, x17, 4
0000047c: 00319263    bne  x3, x3, 4
00000480: 00360263    beq  x12, x3, 4
00000484: 6d312623    sw   x19, 1740(x2)
00000488: 01fd6db3    or   x27, x26, x31
0000048c: 01bd8263    beq  x27, x27, 4
00000490: 0187f1b3    and  x3, x15, x24
00000494: 00319263    bne  x3, x3, 4
00000498: 3ee8ef93    ori  x31, x17, 1006
0000049c: 9ac12d03    lw   x26, -1620(x2)
000004a0: 01ad1263    bne  x26, x26, 4
000004a4: 01fc0263    beq  x24, x31, 4
000004a8: 01399263    bne  x19, x19, 4
000004ac: 015a9263    bne  x21, x21, 4
000004b0: 00ab9263    bne  x23, x10, 4
000004b4: 58c58913    addi x18, x11, 1420
000004b8: 2ef97d13    andi x26, x18, 751
000004bc: 01ad0263    beq  x26, x26, 4
000004c0: 01ad0263    beq  x26, x26, 4
000004c4: cefec313    xori x6, x29, -785
000004c8: 96534793    xori x15, x6, -1691
000004cc: 11912e23    sw   x25, 284(x2)
000004d0: 1e77fd93    andi x27, x15, 487
000004d4: 61812783    lw   x15, 1560(x2)
000004d8: d3b12623    sw   x27, -724(x2)
000004dc: 014a1263    bne  x20, x20, 4
000004e0: 01380263    beq  x16, x19, 4
000004e4: 0038fdb3    and  x27, x17, x3
000004e8: aefdcf93    xori x31, x27, -1297
000004ec: 8d812703    lw   x14, -1832(x2)
000004f0: a9c74613    xori x12, x14, -1380
000004f4: 00c61263    bne  x12, x12, 4
000004f8: 01f2fe33    and  x28, x5, x31
000004fc: 65412c23    sw   x20, 1624(x2)
00000500: 00318263    beq  x3, x3, 4
00000504: b9912623    sw   x25, -1140(x2)
00000508: 00a50263    beq  x10, x10, 4
0000050c: a0412023    sw   x4, -1536(x2)
00000510: 01484433    xor  x8, x16, x20
00000514: 00108263    beq  x1, x1, 4
00000518: 00d341b3    xor  x3, x6, x13
0000051c: 01dd6833    or   x16, x26, x29
00000520: 01c12c03    lw   x24, 28(x2)
00000524: fb412c03    lw   x24, -76(x2)
00000528: 018c1263    bne  x24, x24, 4
0000052c: 00c60263    beq  x12, x12, 4
00000530: 75512823    sw   x21, 1872(x2)
00000534: 00529263    bne  x5, x5, 4
00000538: 00738263    beq  x7, x7, 4
0000053c: 4bc12d83    lw   x27, 1212(x2)
00000540: 007d9263    bne  x27, x7, 4
00000544: 019c9263    bne  x25, x25, 4
00000548: 01ad1263    bne  x26, x26, 4
0000054c: 2c612c23    sw   x6, 728(x2)
00000550: 08812d03    lw   x26, 136(x2)
00000554: dd212223    sw   x18, -572(x2)
00000558: 00421263    bne  x4, x4, 4
0000055c: 006a1263    bne  x20, x6, 4
00000560: 01f11263    bne  x2, x31, 4
00000564: 9d412183    lw   x3, -1580(x2)
00000568: c9118e93    addi x29, x3, -879
0000056c: 403e84b3    sub  x9, x29, x3
00000570: 0056cc33    xor  x24, x13, x5
00000574: a7312a23    sw   x19, -1420(x2)
00000578: 00c61263    bne  x12, x12, 4
0000057c: 00420263    beq  x4, x4, 4
00000580: 01a6f4b3    and  x9, x13, x26
00000584: 014a1263    bne  x20, x20, 4
00000588: 01028263    beq  x5, x16, 4
0000058c: 0177f633    and  x12, x15, x23
00000590: d0812b83    lw   x23, -760(x2)
00000594: f2c12203    lw   x4, -212(x2)
00000598: 8cc12a23    sw   x12, -1836(x2)
0000059c: c3412223    sw   x20, -988(x2)
000005a0: 4bc12b83    lw   x23, 1212(x2)
000005a4: a4512e23    sw   x5, -1444(x2)
000005a8: 00faec33    or   x24, x21, x15
000005ac: 012c0263    beq  x24, x18, 4
000005b0: 9db12223    sw   x27, -1596(x2)
000005b4: 00528263    beq  x5, x5, 4
000005b8: 017b9263    bne  x23, x23, 4
000005bc: c014eb13    ori  x22, x9, -1023
000005c0: d7ab7b93    andi x23, x22, -646
000005c4: 95012d83    lw   x27, -1712(x2)
000005c8: 01ff9263    bne  x31, x31, 4
000005cc: 8f012c23    sw   x16, -1800(x2)
000005d0: 1a812803    lw   x16, 424(x2)
000005d4: 18f12223    sw   x15, 388(x2)
000005d8: 00211263    bne  x2, x2, 4
000005dc: c9812583    lw   x11, -872(x2)
000005e0: 01ce1263    bne  x28, x28, 4
000005e4: 00c60263    beq  x12, x12, 4
000005e8: 00f79263    bne  x15, x15, 4
000005ec: 00421263    bne  x4, x4, 4
000005f0: 27a77f93    andi x31, x14, 634
000005f4: 010f9263    bne  x31, x16, 4
000005f8: 8a312e23    sw   x3, -1860(x2)
000005fc: fa712a23    sw   x7, -76(x2)
00000600: 01117b33    and  x22, x2, x17
00000604: 84012e03    lw   x28, -1984(x2)
00000608: 01ce1263    bne  x28, x28, 4
0000060c: 00266ab3    or   x21, x12, x2
00000610: a5812683    lw   x13, -1448(x2)
00000614: bcc12283    lw   x5, -1076(x2)
00000618: 3b012c83    lw   x25, 944(x2)
0000061c: 94212423    sw   x2, -1720(x2)
00000620: 017b9263    bne  x23, x23, 4
00000624: 2312e393    ori  x7, x5, 561
00000628: 2c012883    lw   x17, 704(x2)
0000062c: 73012d83    lw   x27, 1840(x2)
00000630: 01bd9263    bne  x27, x27, 4
00000634: 010d44b3    xor  x9, x26, x16
00000638: 75fc8313    addi x6, x25, 1887
0000063c: cbb12c23    sw   x27, -840(x2)
00000640: 401108b3    sub  x17, x2, x1
00000644: 01189263    bne  x17, x17, 4
00000648: 9f712e23    sw   x23, -1540(x2)
0000064c: 00739263    bne  x7, x7, 4
00000650: 2f45c993    xori x19, x11, 756
00000654: 77c12383    lw   x7, 1916(x2)
00000658: 00a51263    bne  x10, x10, 4
0000065c: 225bc813    xori x16, x23, 549
00000660: 13412203    lw   x4, 308(x2)
00000664: 31f12423    sw   x31, 776(x2)
00000668: 95812503    lw   x10, -1704(x2)
0000066c: 01ef1263    bne  x30, x30, 4
00000670: 0b13e293    ori  x5, x7, 177
00000674: 99f2fb93    andi x23, x5, -1633
00000678: 00841263    bne  x8, x8, 4
0000067c: 01080263    beq  x16, x16, 4
00000680: 00691263    bne  x18, x6, 4
00000684: 75512223    sw   x21, 1860(x2)
00000688: 01ff9263    bne  x31, x31, 4
0000068c: 008f49b3    xor  x19, x30, x8
00000690: da014f93    xori x31, x2, -608
00000694: dfe12a23    sw   x30, -524(x2)
00000698: 93012083    lw   x1, -1744(x2)
0000069c: 11812783    lw   x15, 280(x2)
000006a0: 0bb84393    xori x7, x16, 187
000006a4: 018c1263    bne  x24, x24, 4
000006a8: 17012983    lw   x19, 368(x2)
000006ac: 01399263    bne  x19, x19, 4
000006b0: ac412683    lw   x13, -1340(x2)
000006b4: 00d69263    bne  x13, x13, 4
000006b8: 44412403    lw   x8, 1092(x2)
000006bc: 00840263    beq  x8, x8, 4
000006c0: 00c60263    beq  x12, x12, 4
000006c4: d1c12683    lw   x13, -740(x2)
000006c8: bc012a83    lw   x21, -1088(x2)
000006cc: 014a0263    beq  x20, x20, 4
000006d0: 54c12b83    lw   x23, 1356(x2)
000006d4: a9ebf893    andi x17, x23, -1378
000006d8: 0048c133    xor  x2, x17, x4
000006dc: 27f3fe93    andi x29, x7, 639
000006e0: 01de9263    bne  x29, x29, 4
000006e4: 01188263    beq  x17, x17, 4
000006e8: 69312e23    sw   x19, 1692(x2)
000006ec: 00f79263    bne  x15, x15, 4
000006f0: 81812c03    lw   x24, -2024(x2)
000006f4: 018c0263    beq  x24, x24, 4
000006f8: 00316633    or   x12, x2, x3
000006fc: 3fd12c23    sw   x29, 1016(x2)
00000700: 40312223    sw   x3, 1028(x2)
00000704: bcbb6313    ori  x6, x22, -1077
00000708: 8ba28593    addi x11, x5, -1862
0000070c: 43b12023    sw   x27, 1056(x2)
00000710: 00f79263    bne  x15, x15, 4
00000714: 004e8263    beq  x29, x4, 4
00000718: 407701b3    sub  x3, x14, x7
0000071c: 00318263    beq  x3, x3, 4
00000720: 00210263    beq  x2, x2, 4
00000724: 411c8533    sub  x10, x25, x17
00000728: 24012403    lw   x8, 576(x2)
0000072c: 00840263    beq  x8, x8, 4
00000730: 0144cfb3    xor  x31, x9, x20
00000734: 016b1263    bne  x22, x22, 4
00000738: 01761263    bne  x12, x23, 4
0000073c: 50512823    sw   x5, 1296(x2)
00000740: 01130263    beq  x6, x17, 4
00000744: 9d854993    xori x19, x10, -1576
00000748: fc59c493    xori x9, x19, -59
0000074c: 3c312e23    sw   x3, 988(x2)
00000750: 097d8693    addi x13, x27, 151
00000754: 41b68d33    sub  x26, x13, x27
00000758: eafd4e93    xori x29, x26, -337
0000075c: 01ef0263    beq  x30, x30, 4
00000760: fd712023    sw   x23, -64(x2)
00000764: fb212423    sw   x18, -88(x2)
00000768: 00a51263    bne  x10, x10, 4
0000076c: 00c61263    bne  x12, x12, 4
00000770: 23e12e23    sw   x30, 572(x2)
00000774: 00b58263    beq  x11, x11, 4
00000778: 55c12503    lw   x10, 1372(x2)
0000077c: 00a50263    beq  x10, x10, 4
00000780: 03c12c83    lw   x25, 60(x2)
00000784: 6a612e23    sw   x6, 1724(x2)
00000788: 7a067313    andi x6, x12, 1952
0000078c: 002aceb3    xor  x29, x21, x2
00000790: 00eb02b3    add  x5, x22, x14
00000794: 017b8263    beq  x23, x23, 4
00000798: 01664c33    xor  x24, x12, x22
0000079c: 88112023    sw   x1, -1920(x2)
000007a0: 01270d33    add  x26, x14, x18
000007a4: 01cd4bb3    xor  x23, x26, x28
000007a8: b15b8893    addi x17, x23, -1259
000007ac: 01189263    bne  x17, x17, 4
000007b0: 00d69263    bne  x13, x13, 4
000007b4: a9446b13    ori  x22, x8, -1388
000007b8: 00e167b3    or   x15, x2, x14
000007bc: 00f78263    beq  x15, x15, 4
000007c0: 01ce1263    bne  x28, x28, 4
000007c4: 01fe4133    xor  x2, x28, x31
000007c8: 0a212623    sw   x2, 172(x2)
000007cc: 90c12303    lw   x6, -1780(x2)
000007d0: 01ff8263    beq  x31, x31, 4
000007d4: a6a12a23    sw   x10, -1420(x2)
000007d8: 00841263    bne  x8, x8, 4
000007dc: 44812c83    lw   x25, 1096(x2)
000007e0: 019bc633    xor  x12, x23, x25
000007e4: 01567db3    and  x27, x12, x21
000007e8: 8f012a83    lw   x21, -1808(x2)
000007ec: f4c12623    sw   x12, -180(x2)
000007f0: df612823    sw   x22, -528(x2)
000007f4: 00a6ce33    xor  x28, x13, x10
000007f8: 01ce1263    bne  x28, x28, 4
000007fc: 222ac613    xori x12, x21, 546
00000800: 00c61263    bne  x12, x12, 4
00000804: dff20793    addi x15, x4, -513
00000808: b4112623    sw   x1, -1204(x2)
0000080c: 01291263    bne  x18, x18, 4
00000810: 53c12683    lw   x13, 1340(x2)
00000814: 42e97313    andi x6, x18, 1070
00000818: 00630263    beq  x6, x6, 4
0000081c: 00949263    bne  x9, x9, 4
00000820: fe412c03    lw   x24, -28(x2)
00000824: b6cc4293    xori x5, x24, -1172
00000828: 42812d03    lw   x26, 1064(x2)
0000082c: 24276a93    ori  x21, x14, 578
00000830: 00b59263    bne  x11, x11, 4
00000834: fcb12023    sw   x11, -64(x2)
00000838: 3a412623    sw   x4, 940(x2)
0000083c: 6c538c13    addi x24, x7, 1733
00000840: 016c6833    or   x16, x24, x22
00000844: 01080263    beq  x16, x16, 4
00000848: a4f12e23    sw   x15, -1444(x2)
0000084c: 57212023    sw   x18, 1376(x2)
00000850: 01ff8263    beq  x31, x31, 4
00000854: 00841263    bne  x8, x8, 4
00000858: 014a1263    bne  x20, x20, 4
0000085c: b6112023    sw   x1, -1184(x2)
00000860: 00840263    beq  x8, x8, 4
00000864: ccc12823    sw   x12, -816(x2)
00000868: 00e871b3    and  x3, x16, x14
0000086c: 1fb1e613    ori  x12, x3, 507
00000870: 00c61263    bne  x12, x12, 4
00000874: 018c1263    bne  x24, x24, 4
00000878: 00510263    beq  x2, x5, 4
0000087c: 41fa8cb3    sub  x25, x21, x31
00000880: 019c9263    bne  x25, x25, 4
00000884: de612223    sw   x6, -540(x2)
00000888: 8f812623    sw   x24, -1812(x2)
0000088c: 5ad12e23    sw   x13, 1468(x2)
00000890: 00738263    beq  x7, x7, 4
00000894: 26ed6393    ori  x7, x26, 622
00000898: 01239263    bne  x7, x18, 4
0000089c: bac12223    sw   x12, -1116(x2)
000008a0: 00f79263    bne  x15, x15, 4
000008a4: 40b98233    sub  x4, x19, x11
000008a8: 00420263    beq  x4, x4, 4
000008ac: 58974313    xori x6, x14, 1417
000008b0: 7ab37593    andi x11, x6, 1963
000008b4: 00b58263    beq  x11, x11, 4
000008b8: 005fe433    or   x8, x31, x5
000008bc: 51612a23    sw   x22, 1300(x2)
000008c0: 7a612023    sw   x6, 1952(x2)
000008c4: 00909263    bne  x1, x9, 4
000008c8: 00840263    beq  x8, x8, 4
000008cc: b9312e23    sw   x19, -1124(x2)
000008d0: 019c9263    bne  x25, x25, 4
000008d4: 012ce3b3    or   x7, x25, x18
000008d8: 01bd8263    beq  x27, x27, 4
000008dc: 00211263    bne  x2, x2, 4
000008e0: bd912023    sw   x25, -1088(x2)
000008e4: 5b012303    lw   x6, 1456(x2)
000008e8: 33930993    addi x19, x6, 825
000008ec: 15c12503    lw   x10, 348(x2)
000008f0: 41a50e33    sub  x28, x10, x26
000008f4: 01ce0263    beq  x28, x28, 4
000008f8: 24e2fe13    andi x28, x5, 590
000008fc: 7a512423    sw   x5, 1960(x2)
00000900: 40f12023    sw   x15, 1024(x2)
00000904: 003d1263    bne  x26, x3, 4
00000908: 68c12f83    lw   x31, 1676(x2)
0000090c: 015febb3    or   x23, x31, x21
00000910: eff12c23    sw   x31, -264(x2)
00000914: 08b12a23    sw   x11, 148(x2)
00000918: 2ff5cf13    xori x30, x11, 767
0000091c: 01ef1263    bne  x30, x30, 4
00000920: 00ff1263    bne  x30, x15, 4
00000924: 01ff8263    beq  x31, x31, 4
00000928: afc56b13    ori  x22, x10, -1284
0000092c: 016b0263    beq  x22, x22, 4
00000930: 015a8263    beq  x21, x21, 4
00000934: 00818933    add  x18, x3, x8
00000938: 84112623    sw   x1, -1972(x2)
0000093c: 017de2b3    or   x5, x27, x23
00000940: 00528263    beq  x5, x5, 4
00000944: 00561263    bne  x12, x5, 4
00000948: a30cf893    andi x17, x25, -1488
0000094c: 33c8cc93    xori x25, x17, 828
00000950: 63c12423    sw   x28, 1576(x2)
00000954: 01de8263    beq  x29, x29, 4
00000958: 5bc12583    lw   x11, 1468(x2)
0000095c: 015a9263    bne  x21, x21, 4
00000960: 007bf933    and  x18, x23, x7
00000964: 01290263    beq  x18, x18, 4
00000968: 459d4213    xori x4, x26, 1113
0000096c: 01e240b3    xor  x1, x4, x30
00000970: 56c12a23    sw   x12, 1396(x2)
00000974: a4112a23    sw   x1, -1452(x2)
00000978: ee412103    lw   x2, -284(x2)
0000097c: 54812703    lw   x14, 1352(x2)
00000980: 01290263    beq  x18, x18, 4
00000984: 00a50263    beq  x10, x10, 4
00000988: 48012983    lw   x19, 1152(x2)
0000098c: 0189f733    and  x14, x19, x24
00000990: 5e710293    addi x5, x2, 1511
00000994: d9c12203    lw   x4, -612(x2)
00000998: 00421263    bne  x4, x4, 4
0000099c: d5412603    lw   x12, -684(x2)
000009a0: bc412c83    lw   x25, -1084(x2)
000009a4: 00e70263    beq  x14, x14, 4
000009a8: 01399263    bne  x19, x19, 4
000009ac: 01d66a33    or   x20, x12, x29
000009b0: 01ea0263    beq  x20, x30, 4
000009b4: 01188263    beq  x17, x17, 4
000009b8: 01080263    beq  x16, x16, 4
000009bc: 012f9263    bne  x31, x18, 4
000009c0: 00841263    bne  x8, x8, 4
000009c4: 00318263    beq  x3, x3, 4
000009c8: 408e8db3    sub  x27, x29, x8
000009cc: 01bd9263    bne  x27, x27, 4
000009d0: 27812183    lw   x3, 632(x2)
000009d4: 00319263    bne  x3, x3, 4
000009d8: 3d312423    sw   x19, 968(x2)
000009dc: cd1cf093    andi x1, x25, -815
000009e0: 01290263    beq  x18, x18, 4
000009e4: 1c412a23    sw   x4, 468(x2)
000009e8: 00840263    beq  x8, x8, 4
000009ec: af812103    lw   x2, -1288(x2)
000009f0: 3ef12423    sw   x15, 1000(x2)
000009f4: 0061cbb3    xor  x23, x3, x6
000009f8: 01398263    beq  x19, x19, 4
000009fc: 01f49263    bne  x9, x31, 4
00000a00: 22c12783    lw   x15, 556(x2)
00000a04: 00f78263    beq  x15, x15, 4
00000a08: 00631263    bne  x6, x6, 4
00000a0c: ea412783    lw   x15, -348(x2)
00000a10: 00f78263    beq  x15, x15, 4
00000a14: 41c50f33    sub  x30, x10, x28
00000a18: 01ef1263    bne  x30, x30, 4
00000a1c: 05012d83    lw   x27, 80(x2)
00000a20: 01368263    beq  x13, x19, 4
00000a24: 00620263    beq  x4, x6, 4
00000a28: 008d8263    beq  x27, x8, 4
00000a2c: 00d68263    beq  x13, x13, 4
00000a30: 00348433    add  x8, x9, x3
00000a34: 0042f133    and  x2, x5, x4
00000a38: 01ef1263    bne  x30, x30, 4
00000a3c: d8c12223    sw   x12, -636(x2)
00000a40: 00631263    bne  x6, x6, 4
00000a44: 7f616793    ori  x15, x2, 2038
00000a48: 44012283    lw   x5, 1088(x2)
00000a4c: 43d28d93    addi x27, x5, 1085
00000a50: 31e12023    sw   x30, 768(x2)
00000a54: 0a612223    sw   x6, 164(x2)
00000a58: 014a1263    bne  x20, x20, 4
00000a5c: 01080263    beq  x16, x16, 4
00000a60: 08727993    andi x19, x4, 135
00000a64: 35a14f93    xori x31, x2, 858
00000a68: 37b36f93    ori  x31, x6, 891
00000a6c: c8c12983    lw   x19, -884(x2)
00000a70: 1e612023    sw   x6, 480(x2)
00000a74: 415184b3    sub  x9, x3, x21
00000a78: e7012d03    lw   x26, -400(x2)
00000a7c: 9e412083    lw   x1, -1564(x2)
00000a80: 3ad08213    addi x4, x1, 941
00000a84: b2b12c23    sw   x11, -1224(x2)
00000a88: 01929263    bne  x5, x25, 4
00000a8c: 22612223    sw   x6, 548(x2)
00000a90: f2412b03    lw   x22, -220(x2)
00000a94: 016b1263    bne  x22, x22, 4
00000a98: 018c1263    bne  x24, x24, 4
00000a9c: 414c85b3    sub  x11, x25, x20
00000aa0: 005466b3    or   x13, x8, x5
00000aa4: 00b58263    beq  x11, x11, 4
00000aa8: 64812083    lw   x1, 1608(x2)
00000aac: 00109263    bne  x1, x1, 4
00000ab0: 00dc0833    add  x16, x24, x13
00000ab4: 7dd12223    sw   x29, 1988(x2)
00000ab8: b3b12e23    sw   x27, -1220(x2)
00000abc: 670e7193    andi x3, x28, 1648
00000ac0: 00108263    beq  x1, x1, 4
00000ac4: 00730263    beq  x6, x7, 4
00000ac8: 014efab3    and  x21, x29, x20
00000acc: d0674113    xori x2, x14, -762
00000ad0: 00211263    bne  x2, x2, 4
00000ad4: 99650713    addi x14, x10, -1642
00000ad8: 38b70093    addi x1, x14, 907
00000adc: 00109263    bne  x1, x1, 4
00000ae0: 00109263    bne  x1, x1, 4
00000ae4: 01b876b3    and  x13, x16, x27
00000ae8: ae812a83    lw   x21, -1304(x2)
00000aec: 00ca8263    beq  x21, x12, 4
00000af0: 6e912023    sw   x9, 1760(x2)
00000af4: 00948263    beq  x9, x9, 4
00000af8: 017b0633    add  x12, x22, x23
00000afc: 463c8e13    addi x28, x25, 1123
00000b00: f9012423    sw   x16, -120(x2)
00000b04: 01868263    beq  x13, x24, 4
00000b08: 65ee8313    addi x6, x29, 1630
00000b0c: 00538263    beq  x7, x5, 4
00000b10: e7b12a23    sw   x27, -396(x2)
00000b14: 23812f03    lw   x30, 568(x2)
00000b18: 4b212a23    sw   x18, 1204(x2)
00000b1c: 00948263    beq  x9, x9, 4
00000b20: b8e12c23    sw   x14, -1128(x2)
00000b24: 01398263    beq  x19, x19, 4
00000b28: 01d9f933    and  x18, x19, x29
00000b2c: 79312423    sw   x19, 1928(x2)
00000b30: 4e516313    ori  x6, x2, 1253
00000b34: 92d12e23    sw   x13, -1732(x2)
00000b38: 73458f93    addi x31, x11, 1844
00000b3c: 1b012503    lw   x10, 432(x2)
00000b40: 40550633    sub  x12, x10, x5
00000b44: 09c12c03    lw   x24, 156(x2)
00000b48: ec3c4f93    xori x31, x24, -317
00000b4c: 9cc12883    lw   x17, -1588(x2)
00000b50: 017b8263    beq  x23, x23, 4
00000b54: 40788fb3    sub  x31, x17, x7
00000b58: 00246733    or   x14, x8, x2
00000b5c: 01bd9263    bne  x27, x27, 4
00000b60: 40d20933    sub  x18, x4, x13
00000b64: 01491263    bne  x18, x20, 4
00000b68: 018d8263    beq  x27, x24, 4
00000b6c: 00d68263    beq  x13, x13, 4
00000b70: 09cafb13    andi x22, x21, 156
00000b74: 01ab0263    beq  x22, x26, 4
00000b78: f2928513    addi x10, x5, -215
00000b7c: 58c12e83    lw   x29, 1420(x2)
00000b80: 01de9263    bne  x29, x29, 4
00000b84: 00d88263    beq  x17, x13, 4
00000b88: 01cb1263    bne  x22, x28, 4
00000b8c: 18c12b03    lw   x22, 396(x2)
00000b90: 015b1263    bne  x22, x21, 4
00000b94: e0412283    lw   x5, -508(x2)
00000b98: 00529263    bne  x5, x5, 4
00000b9c: 7eab0513    addi x10, x22, 2026
00000ba0: 93312023    sw   x19, -1760(x2)
00000ba4: f1d9eb93    ori  x23, x19, -227
00000ba8: 19812e03    lw   x28, 408(x2)
00000bac: b1fe6813    ori  x16, x28, -1249
00000bb0: 01a80263    beq  x16, x26, 4
00000bb4: ad812403    lw   x8, -1320(x2)
00000bb8: 57412d03    lw   x26, 1396(x2)
00000bbc: 6d412e03    lw   x28, 1748(x2)
00000bc0: 01ce0263    beq  x28, x28, 4
00000bc4: 0123e5b3    or   x11, x7, x18
00000bc8: e685f613    andi x12, x11, -408
00000bcc: c8b12a23    sw   x11, -876(x2)
00000bd0: 00c36bb3    or   x23, x6, x12
00000bd4: 00211263    bne  x2, x2, 4
00000bd8: 019c8263    beq  x25, x25, 4
00000bdc: 414c8733    sub  x14, x25, x20
00000be0: 44112223    sw   x1, 1092(x2)
00000be4: 00139263    bne  x7, x1, 4
00000be8: 82188b13    addi x22, x17, -2015
00000bec: 01de8263    beq  x29, x29, 4
00000bf0: 01188263    beq  x17, x17, 4
00000bf4: 00211263    bne  x2, x2, 4
00000bf8: 5e012e83    lw   x29, 1504(x2)
00000bfc: 010e9263    bne  x29, x16, 4
00000c00: 88812e23    sw   x8, -1892(x2)
00000c04: 00528263    beq  x5, x5, 4
00000c08: 01837b33    and  x22, x6, x24
00000c0c: 98c12a03    lw   x20, -1652(x2)
00000c10: 018a8233    add  x4, x21, x24
00000c14: 72c12b83    lw   x23, 1836(x2)
00000c18: 00ebfc33    and  x24, x23, x14
00000c1c: b5bc4893    xori x17, x24, -1189
00000c20: 01120263    beq  x4, x17, 4
00000c24: e7412603    lw   x12, -396(x2)
00000c28: 00210263    beq  x2, x2, 4
00000c2c: f8012083    lw   x1, -128(x2)
00000c30: 00109263    bne  x1, x1, 4
00000c34: 00418263    beq  x3, x4, 4
00000c38: 179ac493    xori x9, x21, 377
00000c3c: 00948263    beq  x9, x9, 4
00000c40: 5a012c03    lw   x24, 1440(x2)
00000c44: 01dc02b3    add  x5, x24, x29
00000c48: 00529263    bne  x5, x5, 4
00000c4c: 01c4f633    and  x12, x9, x28
00000c50: 0bb12823    sw   x27, 176(x2)
00000c54: 57512e23    sw   x21, 1404(x2)
00000c58: 41830d33    sub  x26, x6, x24
00000c5c: 550d0f93    addi x31, x26, 1360
00000c60: dd412623    sw   x20, -564(x2)
00000c64: 41160933    sub  x18, x12, x17
00000c68: 00990bb3    add  x23, x18, x9
00000c6c: b0cbe713    ori  x14, x23, -1268
00000c70: 00e71263    bne  x14, x14, 4
00000c74: 01bd8263    beq  x27, x27, 4
00000c78: 01ef1263    bne  x30, x30, 4
00000c7c: 7bbe0593    addi x11, x28, 1979
00000c80: 0085ca33    xor  x20, x11, x8
00000c84: 6b0a0793    addi x15, x20, 1712
00000c88: 64b12623    sw   x11, 1612(x2)
00000c8c: 00180263    beq  x16, x1, 4
00000c90: 01b10ab3    add  x21, x2, x27
00000c94: 2e8ec613    xori x12, x29, 744
00000c98: 29212e23    sw   x18, 668(x2)
00000c9c: 3b712023    sw   x23, 928(x2)
00000ca0: 2ec20693    addi x13, x4, 748
00000ca4: b6412103    lw   x2, -1180(x2)
00000ca8: b6912623    sw   x9, -1172(x2)
00000cac: 0083e8b3    or   x17, x7, x8
00000cb0: 00b59263    bne  x11, x11, 4
00000cb4: 013a8263    beq  x21, x19, 4
00000cb8: c5f12623    sw   x31, -948(x2)
00000cbc: 01f8c733    xor  x14, x17, x31
00000cc0: c1b8f213    andi x4, x17, -997
00000cc4: 44c12703    lw   x14, 1100(x2)
00000cc8: 4bbce593    ori  x11, x25, 1211
00000ccc: 1902ce13    xori x28, x5, 400
00000cd0: eb5bfa13    andi x20, x23, -331
00000cd4: 250f7b93    andi x23, x30, 592
00000cd8: 017b9263    bne  x23, x23, 4
00000cdc: 58412d03    lw   x26, 1412(x2)
00000ce0: 01ad0263    beq  x26, x26, 4
00000ce4: d2412503    lw   x10, -732(x2)
00000ce8: 00a51263    bne  x10, x10, 4
00000cec: 01291263    bne  x18, x18, 4
00000cf0: 01ce0263    beq  x28, x28, 4
00000cf4: f9112c23    sw   x17, -104(x2)
00000cf8: 98012f03    lw   x30, -1664(x2)
00000cfc: 9b812083    lw   x1, -1608(x2)
00000d00: 01de1263    bne  x28, x29, 4
00000d04: e4812c83    lw   x25, -440(x2)
00000d08: 00f78263    beq  x15, x15, 4
00000d0c: 00431263    bne  x6, x4, 4
00000d10: 00948263    beq  x9, x9, 4
00000d14: 01ce1263    bne  x28, x28, 4
00000d18: cebf0f93    addi x31, x30, -789
00000d1c: 014f9263    bne  x31, x20, 4
00000d20: a5412d03    lw   x26, -1452(x2)
00000d24: d19f8713    addi x14, x31, -743
00000d28: f1412e83    lw   x29, -236(x2)
00000d2c: 01de8263    beq  x29, x29, 4
00000d30: 84412423    sw   x4, -1976(x2)
00000d34: 9467fb93    andi x23, x15, -1722
00000d38: 009d69b3    or   x19, x26, x9
00000d3c: 00c89263    bne  x17, x12, 4
00000d40: aa256213    ori  x4, x10, -1374
00000d44: 00820c33    add  x24, x4, x8
00000d48: 018c0263    beq  x24, x24, 4
00000d4c: 018d9263    bne  x27, x24, 4
00000d50: 401f8833    sub  x16, x31, x1
00000d54: 00319263    bne  x3, x3, 4
00000d58: 50b9e693    ori  x13, x19, 1291
00000d5c: 88812683    lw   x13, -1912(x2)
00000d60: 0026ccb3    xor  x25, x13, x2
00000d64: 01189263    bne  x17, x17, 4
00000d68: 42d12a23    sw   x13, 1076(x2)
00000d6c: d1212023    sw   x18, -768(x2)
00000d70: 018c1263    bne  x24, x24, 4
00000d74: 3f012f83    lw   x31, 1008(x2)
00000d78: 95690093    addi x1, x18, -1706
00000d7c: 0080fd33    and  x26, x1, x8
00000d80: c8612623    sw   x6, -884(x2)
00000d84: 007a0263    beq  x20, x7, 4
00000d88: 01ad0263    beq  x26, x26, 4
00000d8c: a4a12a23    sw   x10, -1452(x2)
00000d90: 41948a33    sub  x20, x9, x25
00000d94: 014a0263    beq  x20, x20, 4
00000d98: 014a0263    beq  x20, x20, 4
00000d9c: 00f79263    bne  x15, x15, 4
00000da0: 21c12f83    lw   x31, 540(x2)
00000da4: 01ff8263    beq  x31, x31, 4
00000da8: 0db12c23    sw   x27, 216(x2)
00000dac: 01eb1263    bne  x22, x30, 4
00000db0: 79412903    lw   x18, 1940(x2)
00000db4: 01d97e33    and  x28, x18, x29
00000db8: a7012c03    lw   x24, -1424(x2)
00000dbc: 018c0263    beq  x24, x24, 4
00000dc0: ede12623    sw   x30, -308(x2)
00000dc4: 00949263    bne  x9, x9, 4
00000dc8: 48c12403    lw   x8, 1164(x2)
00000dcc: c4812783    lw   x15, -952(x2)
00000dd0: 00f78263    beq  x15, x15, 4
00000dd4: 647e7313    andi x6, x28, 1607
00000dd8: 37b34113    xori x2, x6, 891
00000ddc: 00d174b3    and  x9, x2, x13
00000de0: 00d49263    bne  x9, x13, 4
00000de4: 016785b3    add  x11, x15, x22
00000de8: 06c12983    lw   x19, 108(x2)
00000dec: 01399263    bne  x19, x19, 4
00000df0: 009ec733    xor  x14, x29, x9
00000df4: 00d69263    bne  x13, x13, 4
00000df8: 01e842b3    xor  x5, x16, x30
00000dfc: 00529263    bne  x5, x5, 4
00000e00: 00630263    beq  x6, x6, 4
00000e04: ba012803    lw   x16, -1120(x2)
00000e08: 8b784413    xori x8, x16, -1865
00000e0c: 94147f13    andi x30, x8, -1727
00000e10: 01ef0263    beq  x30, x30, 4
00000e14: 0036f433    and  x8, x13, x3
00000e18: d6812a23    sw   x8, -652(x2)
00000e1c: 076a7313    andi x6, x20, 118
00000e20: 00f78263    beq  x15, x15, 4
00000e24: 00d68263    beq  x13, x13, 4
00000e28: 016e1263    bne  x28, x22, 4
00000e2c: 410a0fb3    sub  x31, x20, x16
00000e30: 011f8263    beq  x31, x17, 4
00000e34: 016b0263    beq  x22, x22, 4
00000e38: 56c12a23    sw   x12, 1396(x2)
00000e3c: f5f12a23    sw   x31, -172(x2)
00000e40: 33312a23    sw   x19, 820(x2)
00000e44: 005f6533    or   x10, x30, x5
00000e48: 00b51263    bne  x10, x11, 4
00000e4c: 01b08263    beq  x1, x27, 4
00000e50: 01626433    or   x8, x4, x22
00000e54: 00840263    beq  x8, x8, 4
00000e58: 05c12e03    lw   x28, 92(x2)
00000e5c: 4b412c83    lw   x25, 1204(x2)
00000e60: dac12c23    sw   x12, -584(x2)
00000e64: 1d012983    lw   x19, 464(x2)
00000e68: f5a98793    addi x15, x19, -166
00000e6c: 2d424d93    xori x27, x4, 724
00000e70: 40dd8b33    sub  x22, x27, x13
00000e74: 016b1263    bne  x22, x22, 4
00000e78: 00948263    beq  x9, x9, 4
00000e7c: 4d412823    sw   x20, 1232(x2)
00000e80: 416508b3    sub  x17, x10, x22
00000e84: 01189263    bne  x17, x17, 4
00000e88: 01ad0263    beq  x26, x26, 4
00000e8c: 008b7bb3    and  x23, x22, x8
00000e90: 01ab9263    bne  x23, x26, 4
00000e94: 00d68263    beq  x13, x13, 4
00000e98: 012c0533    add  x10, x24, x18
00000e9c: 31c12f83    lw   x31, 796(x2)
00000ea0: 01ff9263    bne  x31, x31, 4
00000ea4: b684c993    xori x19, x9, -1176
00000ea8: 01b99263    bne  x19, x27, 4
00000eac: 62812f83    lw   x31, 1576(x2)
00000eb0: 6aefeb13    ori  x22, x31, 1710
00000eb4: 004b6533    or   x10, x22, x4
00000eb8: 21a57793    andi x15, x10, 538
00000ebc: ff012503    lw   x10, -16(x2)
00000ec0: a6c12903    lw   x18, -1428(x2)
00000ec4: dd966c93    ori  x25, x12, -551
00000ec8: e6812023    sw   x8, -416(x2)
00000ecc: e9c12403    lw   x8, -356(x2)
00000ed0: 00840263    beq  x8, x8, 4
00000ed4: 015260b3    or   x1, x4, x21
00000ed8: 3f412023    sw   x20, 992(x2)
00000edc: 01ee9263    bne  x29, x30, 4
00000ee0: 4b812403    lw   x8, 1208(x2)
00000ee4: 01088263    beq  x17, x16, 4
00000ee8: bda6cc13    xori x24, x13, -1062
00000eec: 018c0263    beq  x24, x24, 4
00000ef0: 39012a03    lw   x20, 912(x2)
00000ef4: 00949263    bne  x9, x9, 4
00000ef8: de012803    lw   x16, -544(x2)
00000efc: 3ac12e03    lw   x28, 940(x2)
00000f00: b32e7c13    andi x24, x28, -1230
00000f04: 018c1263    bne  x24, x24, 4
00000f08: 005d1263    bne  x26, x5, 4
00000f0c: 7e512e23    sw   x5, 2044(x2)
00000f10: 79012503    lw   x10, 1936(x2)
00000f14: 00456cb3    or   x25, x10, x4
00000f18: 019c8263    beq  x25, x25, 4
00000f1c: 38c12603    lw   x12, 908(x2)
00000f20: 30012083    lw   x1, 768(x2)
00000f24: 00108263    beq  x1, x1, 4
00000f28: 35dae593    ori  x11, x21, 861
00000f2c: a8d12023    sw   x13, -1408(x2)
00000f30: 2cb7f713    andi x14, x15, 715
00000f34: 00670633    add  x12, x14, x6
00000f38: 00c61263    bne  x12, x12, 4
00000f3c: 63c12c83    lw   x25, 1596(x2)
00000f40: 52612e23    sw   x6, 1340(x2)
00000f44: 00108263    beq  x1, x1, 4
00000f48: 406f8733    sub  x14, x31, x6
00000f4c: 01370263    beq  x14, x19, 4
00000f50: 00d68263    beq  x13, x13, 4
00000f54: 014a1263    bne  x20, x20, 4
00000f58: 01040263    beq  x8, x16, 4
00000f5c: 01bd8263    beq  x27, x27, 4
00000f60: 73c12783    lw   x15, 1852(x2)
00000f64: c5f12823    sw   x31, -944(x2)
00000f68: 5f112423    sw   x17, 1512(x2)
00000f6c: 31c12803    lw   x16, 796(x2)
00000f70: 1cc12c23    sw   x12, 472(x2)
00000f74: 85412083    lw   x1, -1964(x2)
00000f78: 12d0e893    ori  x17, x1, 301
00000f7c: 74a12223    sw   x10, 1860(x2)
00000f80: 01570263    beq  x14, x21, 4
00000f84: e0812703    lw   x14, -504(x2)
00000f88: 41b44493    xori x9, x8, 1051
00000f8c: 11c4eb13    ori  x22, x9, 284
00000f90: dd670293    addi x5, x14, -554
00000f94: 0b712a23    sw   x23, 180(x2)
00000f98: 89c12283    lw   x5, -1892(x2)
00000f9c: 10728513    addi x10, x5, 263
00000fa0: 10500073    wfi
