00000000: fd412403    lw   x8, -44(x2)
00000004: 01340263    beq  x8, x19, 4
00000008: 00810533    add  x10, x2, x8
0000000c: fea51ee3    bne  x10, x10, -4
00000010: 83412c83    lw   x25, -1996(x2)
00000014: cf812383    lw   x7, -776(x2)
00000018: b0c12c23    sw   x12, -1256(x2)
0000001c: 96012c03    lw   x24, -1696(x2)
00000020: a9212223    sw   x18, -1404(x2)
00000024: e2412b83    lw   x23, -476(x2)
00000028: a8c12e03    lw   x28, -1396(x2)
0000002c: ffce1ee3    bne  x28, x28, -4
00000030: a4866a93    ori  x21, x12, -1464
00000034: 6caaf693    andi x13, x21, 1738
00000038: 9ca6e413    ori  x8, x13, -1590
0000003c: a1c12383    lw   x7, -1508(x2)
00000040: ecc12a83    lw   x21, -308(x2)
00000044: c8912823    sw   x9, -880(x2)
00000048: 5b412e83    lw   x29, 1460(x2)
0000004c: ae8ecc93    xori x25, x29, -1304
00000050: ff9c9ee3    bne  x25, x25, -4
00000054: 6f112c23    sw   x17, 1784(x2)
00000058: 01790fb3    add  x31, x18, x23
0000005c: b9012503    lw   x10, -1136(x2)
00000060: db412883    lw   x17, -588(x2)
00000064: 3f757d13    andi x26, x10, 1015
00000068: 00bd48b3    xor  x17, x26, x11
0000006c: fa812103    lw   x2, -88(x2)
00000070: 019108b3    add  x17, x2, x25
00000074: 73597993    andi x19, x18, 1845
00000078: ede12223    sw   x30, -316(x2)
0000007c: 4c4c6b13    ori  x22, x24, 1220
00000080: bc812e23    sw   x8, -1060(x2)
00000084: 0135c433    xor  x8, x11, x19
00000088: 00240263    beq  x8, x2, 4
0000008c: 00410263    beq  x2, x4, 4
00000090: 72087413    andi x8, x16, 1824
00000094: 017387b3    add  x15, x7, x23
00000098: 00278733    add  x14, x15, x2
0000009c: e1627993    andi x19, x4, -490
000000a0: 6cc12403    lw   x8, 1740(x2)
000000a4: 012d0263    beq  x26, x18, 4
000000a8: 00390263    beq  x18, x3, 4
000000ac: edc12a23    sw   x28, -300(x2)
000000b0: 81114713    xori x14, x2, -2031
000000b4: 12e12023    sw   x14, 288(x2)
000000b8: ce712a23    sw   x7, -780(x2)
000000bc: 018fc933    xor  x18, x31, x24
000000c0: 010949b3    xor  x19, x18, x16
000000c4: 40410b33    sub  x22, x2, x4
000000c8: bdf12a23    sw   x31, -1068(x2)
000000cc: 00344833    xor  x16, x8, x3
000000d0: 05812383    lw   x7, 88(x2)
000000d4: 4a812283    lw   x5, 1192(x2)
000000d8: a5012083    lw   x1, -1456(x2)
000000dc: 01308433    add  x8, x1, x19
000000e0: a3012e83    lw   x29, -1488(x2)
000000e4: 1b412623    sw   x20, 428(x2)
000000e8: 00ad4bb3    xor  x23, x26, x10
000000ec: bb012e83    lw   x29, -1104(x2)
000000f0: 10412a03    lw   x20, 260(x2)
000000f4: 7a012483    lw   x9, 1952(x2)
000000f8: 0c212c23    sw   x2, 216(x2)
000000fc: ff9c9ee3    bne  x25, x25, -4
00000100: 84412623    sw   x4, -1972(x2)
00000104: ffde8ee3    beq  x29, x29, -4
00000108: cbc12703    lw   x14, -836(x2)
0000010c: 00777c33    and  x24, x14, x7
00000110: 01ec1263    bne  x24, x30, 4
00000114: d33c7d93    andi x27, x24, -717
00000118: 52c0ed93    ori  x27, x1, 1324
0000011c: d18ded13    ori  x26, x27, -744
00000120: f0712e23    sw   x7, -228(x2)
00000124: 1c412d83    lw   x27, 452(x2)
00000128: 2810c513    xori x10, x1, 641
0000012c: 4c812b03    lw   x22, 1224(x2)
00000130: 01df84b3    add  x9, x31, x29
00000134: 93812203    lw   x4, -1736(x2)
00000138: 5f412a03    lw   x20, 1524(x2)
0000013c: ffde9ee3    bne  x29, x29, -4
00000140: fee70ee3    beq  x14, x14, -4
00000144: 20812b03    lw   x22, 520(x2)
00000148: 51012583    lw   x11, 1296(x2)
0000014c: 5745fb93    andi x23, x11, 1396
00000150: 4feee913    ori  x18, x29, 1278
00000154: 24f12623    sw   x15, 588(x2)
00000158: d6eb4b93    xori x23, x22, -658
0000015c: afc12d83    lw   x27, -1284(x2)
00000160: cb757093    andi x1, x10, -841
00000164: 00f0efb3    or   x31, x1, x15
00000168: 7cd12823    sw   x13, 2000(x2)
0000016c: 01aa8733    add  x14, x21, x26
00000170: 99212c23    sw   x18, -1640(x2)
00000174: 005e6db3    or   x27, x28, x5
00000178: 62812a03    lw   x20, 1576(x2)
0000017c: d1812a23    sw   x24, -748(x2)
00000180: fe812d83    lw   x27, -24(x2)
00000184: fa912223    sw   x9, -92(x2)
00000188: f8012483    lw   x9, -128(x2)
0000018c: 40548533    sub  x10, x9, x5
00000190: 54650793    addi x15, x10, 1350
00000194: 41c78733    sub  x14, x15, x28
00000198: 00d74933    xor  x18, x14, x13
0000019c: 57212423    sw   x18, 1384(x2)
000001a0: f0594493    xori x9, x18, -251
000001a4: fe949ee3    bne  x9, x9, -4
000001a8: c1412a23    sw   x20, -1004(x2)
000001ac: 8c312e23    sw   x3, -1828(x2)
000001b0: dc212823    sw   x2, -560(x2)
000001b4: 2755c613    xori x12, x11, 629
000001b8: 01b12823    sw   x27, 16(x2)
000001bc: 00309263    bne  x1, x3, 4
000001c0: 00918433    add  x8, x3, x9
000001c4: ba944a13    xori x20, x8, -1111
000001c8: d5c12a03    lw   x20, -676(x2)
000001cc: 40aa0233    sub  x4, x20, x10
000001d0: 4bf12823    sw   x31, 1200(x2)
000001d4: 1a618e93    addi x29, x3, 422
000001d8: 012ef733    and  x14, x29, x18
000001dc: fee70ee3    beq  x14, x14, -4
000001e0: b6e12023    sw   x14, -1184(x2)
000001e4: cee12223    sw   x14, -796(x2)
000001e8: 77812783    lw   x15, 1912(x2)
000001ec: 25012e03    lw   x28, 592(x2)
000001f0: 66c12403    lw   x8, 1644(x2)
000001f4: 2c112023    sw   x1, 704(x2)
000001f8: ec95c693    xori x13, x11, -311
000001fc: 85012883    lw   x17, -1968(x2)
00000200: ff8c0ee3    beq  x24, x24, -4
00000204: 65a12a23    sw   x26, 1620(x2)
00000208: fea50ee3    beq  x10, x10, -4
0000020c: 72412903    lw   x18, 1828(x2)
00000210: 34012b83    lw   x23, 832(x2)
00000214: e29b8593    addi x11, x23, -471
00000218: eec5fc93    andi x25, x11, -276
0000021c: b3412d83    lw   x27, -1228(x2)
00000220: 873deb93    ori  x23, x27, -1933
00000224: 00abccb3    xor  x25, x23, x10
00000228: b5c12423    sw   x28, -1208(x2)
0000022c: fea51ee3    bne  x10, x10, -4
00000230: 01cff833    and  x16, x31, x28
00000234: ff080ee3    beq  x16, x16, -4
00000238: ab812403    lw   x8, -1352(x2)
0000023c: 66a44f93    xori x31, x8, 1642
00000240: 1d312223    sw   x19, 452(x2)
00000244: 416a03b3    sub  x7, x20, x22
00000248: fe738ee3    beq  x7, x7, -4
0000024c: 70a12423    sw   x10, 1800(x2)
00000250: 01851263    bne  x10, x24, 4
00000254: 01b40263    beq  x8, x27, 4
00000258: 08097e13    andi x28, x18, 128
0000025c: 014e1263    bne  x28, x20, 4
00000260: 4e012f83    lw   x31, 1248(x2)
00000264: a9412823    sw   x20, -1392(x2)
00000268: 01571263    bne  x14, x21, 4
0000026c: 01c40263    beq  x8, x28, 4
00000270: 94812c83    lw   x25, -1720(x2)
00000274: 0e612223    sw   x6, 228(x2)
00000278: af012423    sw   x16, -1304(x2)
0000027c: b5812e03    lw   x28, -1192(x2)
00000280: 13612c23    sw   x22, 312(x2)
00000284: 003de633    or   x12, x27, x3
00000288: 01d60263    beq  x12, x29, 4
0000028c: 52212c23    sw   x2, 1336(x2)
00000290: 63912223    sw   x25, 1572(x2)
00000294: fe949ee3    bne  x9, x9, -4
00000298: be112023    sw   x1, -1056(x2)
0000029c: 1f1a7913    andi x18, x20, 497
000002a0: 6c490213    addi x4, x18, 1732
000002a4: 0bc12703    lw   x14, 188(x2)
000002a8: cad12023    sw   x13, -864(x2)
000002ac: 0d7a0d13    addi x26, x20, 215
000002b0: 81412503    lw   x10, -2028(x2)
000002b4: ccf12023    sw   x15, -832(x2)
000002b8: 41012783    lw   x15, 1040(x2)
000002bc: f79bce93    xori x29, x23, -135
000002c0: ff8c1ee3    bne  x24, x24, -4
000002c4: 92fb4293    xori x5, x22, -1745
000002c8: 0042e9b3    or   x19, x5, x4
000002cc: fe528ee3    beq  x5, x5, -4
000002d0: 00bd1263    bne  x26, x11, 4
000002d4: 42812f83    lw   x31, 1064(x2)
000002d8: 93412223    sw   x20, -1756(x2)
000002dc: ff5a9ee3    bne  x21, x21, -4
000002e0: 004c6db3    or   x27, x24, x4
000002e4: d5712823    sw   x23, -688(x2)
000002e8: 01b0f1b3    and  x3, x1, x27
000002ec: 52f1fa13    andi x20, x3, 1327
000002f0: 43da0a93    addi x21, x20, 1085
000002f4: 6c1afb13    andi x22, x21, 1729
000002f8: 01eb6533    or   x10, x22, x30
000002fc: 31312623    sw   x19, 780(x2)
00000300: 00f12023    sw   x15, 0(x2)
00000304: 76412a23    sw   x4, 1908(x2)
00000308: 17412b83    lw   x23, 372(x2)
0000030c: 0c112423    sw   x1, 200(x2)
00000310: 019b4833    xor  x16, x22, x25
00000314: f02cea93    ori  x21, x25, -254
00000318: 942a8513    addi x10, x21, -1726
0000031c: 00361263    bne  x12, x3, 4
00000320: c3a77d93    andi x27, x14, -966
00000324: d4012483    lw   x9, -704(x2)
00000328: 2d412d03    lw   x26, 724(x2)
0000032c: 4b7d7e93    andi x29, x26, 1207
00000330: 86912823    sw   x9, -1936(x2)
00000334: 06012983    lw   x19, 96(x2)
00000338: b7412b03    lw   x22, -1164(x2)
0000033c: 012b1263    bne  x22, x18, 4
00000340: 01f46c33    or   x24, x8, x31
00000344: 930c0513    addi x10, x24, -1744
00000348: 00541263    bne  x8, x5, 4
0000034c: cfd12823    sw   x29, -784(x2)
00000350: 51f12623    sw   x31, 1292(x2)
00000354: ef012783    lw   x15, -272(x2)
00000358: b2c12b03    lw   x22, -1236(x2)
0000035c: 9f012683    lw   x13, -1552(x2)
00000360: af612623    sw   x22, -1300(x2)
00000364: 01ba85b3    add  x11, x21, x27
00000368: ea158a13    addi x20, x11, -351
0000036c: cb812d03    lw   x26, -840(x2)
00000370: 005e1263    bne  x28, x5, 4
00000374: 40120733    sub  x14, x4, x1
00000378: 40958133    sub  x2, x11, x9
0000037c: 01110833    add  x16, x2, x17
00000380: f1f12a23    sw   x31, -236(x2)
00000384: 6a812a83    lw   x21, 1704(x2)
00000388: 00e80263    beq  x16, x14, 4
0000038c: a5d12c23    sw   x29, -1448(x2)
00000390: ff4a0ee3    beq  x20, x20, -4
00000394: 43012a03    lw   x20, 1072(x2)
00000398: b3a12623    sw   x26, -1236(x2)
0000039c: 673e4f13    xori x30, x28, 1651
000003a0: 4ce12023    sw   x14, 1216(x2)
000003a4: 21612023    sw   x22, 512(x2)
000003a8: a25fc193    xori x3, x31, -1499
000003ac: 00d20263    beq  x4, x13, 4
000003b0: be812703    lw   x14, -1048(x2)
000003b4: 9bf12223    sw   x31, -1628(x2)
000003b8: b5012983    lw   x19, -1200(x2)
000003bc: f3c12623    sw   x28, -212(x2)
000003c0: ffce0ee3    beq  x28, x28, -4
000003c4: 8d79ca93    xori x21, x19, -1833
000003c8: 40a48cb3    sub  x25, x9, x10
000003cc: 41d602b3    sub  x5, x12, x29
000003d0: aef28c93    addi x25, x5, -1297
000003d4: 2e612423    sw   x6, 744(x2)
000003d8: ab412e83    lw   x29, -1356(x2)
000003dc: 009e8833    add  x16, x29, x9
000003e0: 54912023    sw   x9, 1344(x2)
000003e4: 00e8f233    and  x4, x17, x14
000003e8: 1c212e23    sw   x2, 476(x2)
000003ec: 007a05b3    add  x11, x20, x7
000003f0: 14012583    lw   x11, 320(x2)
000003f4: d8512e23    sw   x5, -612(x2)
000003f8: a4ebe693    ori  x13, x23, -1458
000003fc: fe108ee3    beq  x1, x1, -4
00000400: 4f712823    sw   x23, 1264(x2)
00000404: 001566b3    or   x13, x10, x1
00000408: 38312a23    sw   x3, 916(x2)
0000040c: 4d024913    xori x18, x4, 1232
00000410: f1412583    lw   x11, -236(x2)
00000414: ff5a8ee3    beq  x21, x21, -4
00000418: cb812403    lw   x8, -840(x2)
0000041c: a6947313    andi x6, x8, -1431
00000420: 25c12a23    sw   x28, 596(x2)
00000424: a2f5c893    xori x17, x11, -1489
00000428: 9cc12603    lw   x12, -1588(x2)
0000042c: 92212a23    sw   x2, -1740(x2)
00000430: 01550b33    add  x22, x10, x21
00000434: 01fb6db3    or   x27, x22, x31
00000438: cdf12823    sw   x31, -816(x2)
0000043c: 01c21263    bne  x4, x28, 4
00000440: fed18c13    addi x24, x3, -19
00000444: 3eec6f93    ori  x31, x24, 1006
00000448: 9ac12d03    lw   x26, -1620(x2)
0000044c: b0412903    lw   x18, -1276(x2)
00000450: a9b96a13    ori  x20, x18, -1381
00000454: 48812283    lw   x5, 1160(x2)
00000458: 40c12a83    lw   x21, 1036(x2)
0000045c: 011b6633    or   x12, x22, x17
00000460: 78f66393    ori  x7, x12, 1935
00000464: 01d3fdb3    and  x27, x7, x29
00000468: 01edfcb3    and  x25, x27, x30
0000046c: dc9cfe13    andi x28, x25, -567
00000470: 965e4713    xori x14, x28, -1691
00000474: 11912e23    sw   x25, 284(x2)
00000478: 1e77fd93    andi x27, x15, 487
0000047c: 61812783    lw   x15, 1560(x2)
00000480: d3b12623    sw   x27, -724(x2)
00000484: 9aba6b13    ori  x22, x20, -1621
00000488: 01db4233    xor  x4, x22, x29
0000048c: 66012e83    lw   x29, 1632(x2)
00000490: 41be87b3    sub  x15, x29, x27
00000494: 01276633    or   x12, x14, x18
00000498: f2c12083    lw   x1, -212(x2)
0000049c: 00c08263    beq  x1, x12, 4
000004a0: c7912823    sw   x25, -912(x2)
000004a4: 00178533    add  x10, x15, x1
000004a8: b9912623    sw   x25, -1140(x2)
000004ac: 00850833    add  x16, x10, x8
000004b0: 01c80fb3    add  x31, x16, x28
000004b4: 152ff713    andi x14, x31, 338
000004b8: df612e23    sw   x22, -516(x2)
000004bc: a2812f83    lw   x31, -1496(x2)
000004c0: 01cfe833    or   x16, x31, x28
000004c4: 01c12c03    lw   x24, 28(x2)
000004c8: fb412c03    lw   x24, -76(x2)
000004cc: ff8c1ee3    bne  x24, x24, -4
000004d0: d9812d83    lw   x27, -616(x2)
000004d4: dda12a23    sw   x26, -556(x2)
000004d8: 92a12623    sw   x10, -1748(x2)
000004dc: 219d0f93    addi x31, x26, 537
000004e0: 00212c23    sw   x2, 24(x2)
000004e4: 36c12e03    lw   x28, 876(x2)
000004e8: bf812d03    lw   x26, -1032(x2)
000004ec: 44b12e23    sw   x11, 1116(x2)
000004f0: 3de12023    sw   x30, 960(x2)
000004f4: 0034e833    or   x16, x9, x3
000004f8: 24412203    lw   x4, 580(x2)
000004fc: 64412a03    lw   x20, 1604(x2)
00000500: 64c12103    lw   x2, 1612(x2)
00000504: 0d512423    sw   x21, 200(x2)
00000508: 016f8ab3    add  x21, x31, x22
0000050c: c91a8e93    addi x29, x21, -879
00000510: 403e84b3    sub  x9, x29, x3
00000514: 0056cc33    xor  x24, x13, x5
00000518: a7312a23    sw   x19, -1420(x2)
0000051c: 21512623    sw   x21, 524(x2)
00000520: 018f8333    add  x6, x31, x24
00000524: 01a37533    and  x10, x6, x26
00000528: 7b412383    lw   x7, 1972(x2)
0000052c: d9d12223    sw   x29, -636(x2)
00000530: 31c12b83    lw   x23, 796(x2)
00000534: d0812b83    lw   x23, -760(x2)
00000538: f2c12203    lw   x4, -212(x2)
0000053c: 8cc12a23    sw   x12, -1836(x2)
00000540: c3412223    sw   x20, -988(x2)
00000544: 4bc12b83    lw   x23, 1212(x2)
00000548: a4512e23    sw   x5, -1444(x2)
0000054c: 00faec33    or   x24, x21, x15
00000550: 5d8c7893    andi x17, x24, 1496
00000554: fe421ee3    bne  x4, x4, -4
00000558: 1165ee93    ori  x29, x11, 278
0000055c: c0012a83    lw   x21, -1024(x2)
00000560: d7aafb93    andi x23, x21, -646
00000564: 95012d83    lw   x27, -1712(x2)
00000568: ffff9ee3    bne  x31, x31, -4
0000056c: 8f012c23    sw   x16, -1800(x2)
00000570: 1a812803    lw   x16, 424(x2)
00000574: 18f12223    sw   x15, 388(x2)
00000578: fe211ee3    bne  x2, x2, -4
0000057c: c9812583    lw   x11, -872(x2)
00000580: 4c012283    lw   x5, 1216(x2)
00000584: fbc12783    lw   x15, -68(x2)
00000588: 99e78513    addi x10, x15, -1634
0000058c: 27a77f93    andi x31, x14, 634
00000590: 6f0fc813    xori x16, x31, 1776
00000594: 6bf12023    sw   x31, 1696(x2)
00000598: 98c12103    lw   x2, -1652(x2)
0000059c: 13212223    sw   x18, 292(x2)
000005a0: fe421ee3    bne  x4, x4, -4
000005a4: 3a212a23    sw   x2, 948(x2)
000005a8: 13c9e193    ori  x3, x19, 316
000005ac: bcc12283    lw   x5, -1076(x2)
000005b0: 3b012c83    lw   x25, 944(x2)
000005b4: 94212423    sw   x2, -1720(x2)
000005b8: ff7b9ee3    bne  x23, x23, -4
000005bc: 2312e393    ori  x7, x5, 561
000005c0: 2c012883    lw   x17, 704(x2)
000005c4: 73012d83    lw   x27, 1840(x2)
000005c8: 013de533    or   x10, x27, x19
000005cc: 010bc4b3    xor  x9, x23, x16
000005d0: 75fc8313    addi x6, x25, 1887
000005d4: cbb12c23    sw   x27, -840(x2)
000005d8: 401108b3    sub  x17, x2, x1
000005dc: 7178ce93    xori x29, x17, 1815
000005e0: 266bfb13    andi x22, x23, 614
000005e4: 2f4b4913    xori x18, x22, 756
000005e8: 77c12383    lw   x7, 1916(x2)
000005ec: 13f56c13    ori  x24, x10, 319
000005f0: 75812603    lw   x12, 1880(x2)
000005f4: 13412203    lw   x4, 308(x2)
000005f8: 31f12423    sw   x31, 776(x2)
000005fc: 95812503    lw   x10, -1704(x2)
00000600: ffef1ee3    bne  x30, x30, -4
00000604: 0b13e293    ori  x5, x7, 177
00000608: 99f2fb93    andi x23, x5, -1633
0000060c: 00f40633    add  x12, x8, x15
00000610: ff9c8ee3    beq  x25, x25, -4
00000614: 75512223    sw   x21, 1860(x2)
00000618: 24412503    lw   x10, 580(x2)
0000061c: 00854a33    xor  x20, x10, x8
00000620: da014f93    xori x31, x2, -608
00000624: dfe12a23    sw   x30, -524(x2)
00000628: 93012083    lw   x1, -1744(x2)
0000062c: 11812783    lw   x15, 280(x2)
00000630: 0bb84393    xori x7, x16, 187
00000634: 03712c23    sw   x23, 56(x2)
00000638: 17012983    lw   x19, 368(x2)
0000063c: 5b112623    sw   x17, 1452(x2)
00000640: 40568933    sub  x18, x13, x5
00000644: 44412403    lw   x8, 1092(x2)
00000648: 1a812983    lw   x19, 424(x2)
0000064c: ff5a8ee3    beq  x21, x21, -4
00000650: fe420ee3    beq  x4, x4, -4
00000654: bc012a83    lw   x21, -1088(x2)
00000658: c46a7813    andi x16, x20, -954
0000065c: 54c12b83    lw   x23, 1356(x2)
00000660: a9ebf893    andi x17, x23, -1378
00000664: 0048c133    xor  x2, x17, x4
00000668: 27f3fe93    andi x29, x7, 639
0000066c: ffde9ee3    bne  x29, x29, -4
00000670: ff188ee3    beq  x17, x17, -4
00000674: 69312e23    sw   x19, 1692(x2)
00000678: fef79ee3    bne  x15, x15, -4
0000067c: 81812c03    lw   x24, -2024(x2)
00000680: ff8c0ee3    beq  x24, x24, -4
00000684: 00316633    or   x12, x2, x3
00000688: 3fd12c23    sw   x29, 1016(x2)
0000068c: 40312223    sw   x3, 1028(x2)
00000690: bcbb6313    ori  x6, x22, -1077
00000694: 8ba28593    addi x11, x5, -1862
00000698: 43b12023    sw   x27, 1056(x2)
0000069c: cf412483    lw   x9, -780(x2)
000006a0: 01b48bb3    add  x23, x9, x27
000006a4: 407b81b3    sub  x3, x23, x7
000006a8: fe318ee3    beq  x3, x3, -4
000006ac: 60812423    sw   x8, 1544(x2)
000006b0: 411c8533    sub  x10, x25, x17
000006b4: 24012403    lw   x8, 576(x2)
000006b8: 19d44513    xori x10, x8, 413
000006bc: 7dc54113    xori x2, x10, 2012
000006c0: 23712823    sw   x23, 560(x2)
000006c4: 40812303    lw   x6, 1032(x2)
000006c8: c9ee6d13    ori  x26, x28, -866
000006cc: ffad1ee3    bne  x26, x26, -4
000006d0: fc912223    sw   x9, -60(x2)
000006d4: 01dae633    or   x12, x21, x29
000006d8: 09760713    addi x14, x12, 151
000006dc: 41b70d33    sub  x26, x14, x27
000006e0: eafd4e93    xori x29, x26, -337
000006e4: 41ff03b3    sub  x7, x30, x31
000006e8: ff9c8ee3    beq  x25, x25, -4
000006ec: fa8bc913    xori x18, x23, -88
000006f0: 36a12e23    sw   x10, 892(x2)
000006f4: 6e412423    sw   x4, 1768(x2)
000006f8: 23e12e23    sw   x30, 572(x2)
000006fc: 97312a23    sw   x19, -1676(x2)
00000700: 058c0913    addi x18, x24, 88
00000704: ce012383    lw   x7, -800(x2)
00000708: 2cd3c513    xori x10, x7, 717
0000070c: 6a612e23    sw   x6, 1724(x2)
00000710: 7a067313    andi x6, x12, 1952
00000714: 002aceb3    xor  x29, x21, x2
00000718: 00eb02b3    add  x5, x22, x14
0000071c: effb8893    addi x17, x23, -257
00000720: ff189ee3    bne  x17, x17, -4
00000724: 0130c7b3    xor  x15, x1, x19
00000728: 12c12083    lw   x1, 300(x2)
0000072c: da412e23    sw   x4, -580(x2)
00000730: e248fa93    andi x21, x17, -476
00000734: 4b012183    lw   x3, 1200(x2)
00000738: 1991fb93    andi x23, x3, 409
0000073c: ffce0ee3    beq  x28, x28, -4
00000740: fed69ee3    bne  x13, x13, -4
00000744: 00409263    bne  x1, x4, 4
00000748: b0c12e83    lw   x29, -1268(x2)
0000074c: ffde9ee3    bne  x29, x29, -4
00000750: 01df7933    and  x18, x30, x29
00000754: 00b90263    beq  x18, x11, 4
00000758: a769c513    xori x10, x19, -1418
0000075c: 28d12e23    sw   x13, 668(x2)
00000760: 0192c6b3    xor  x13, x5, x25
00000764: 0156fdb3    and  x27, x13, x21
00000768: 8f012a83    lw   x21, -1808(x2)
0000076c: f4c12623    sw   x12, -180(x2)
00000770: df612823    sw   x22, -528(x2)
00000774: 00a6ce33    xor  x28, x13, x10
00000778: ffce1ee3    bne  x28, x28, -4
0000077c: 222ac613    xori x12, x21, 546
00000780: fec61ee3    bne  x12, x12, -4
00000784: dff20793    addi x15, x4, -513
00000788: b4112623    sw   x1, -1204(x2)
0000078c: ff291ee3    bne  x18, x18, -4
00000790: 53c12683    lw   x13, 1340(x2)
00000794: 42e97313    andi x6, x18, 1070
00000798: ca312423    sw   x3, -856(x2)
0000079c: 19012a23    sw   x16, 404(x2)
000007a0: fe412c03    lw   x24, -28(x2)
000007a4: b6cc4293    xori x5, x24, -1172
000007a8: 42812d03    lw   x26, 1064(x2)
000007ac: 24276a93    ori  x21, x14, 578
000007b0: 2365c513    xori x10, x11, 566
000007b4: 408fe493    ori  x9, x31, 1032
000007b8: 8dc27c93    andi x25, x4, -1828
000007bc: 15b12823    sw   x27, 336(x2)
000007c0: 7e512c23    sw   x5, 2040(x2)
000007c4: cec12b83    lw   x23, -788(x2)
000007c8: 75312a23    sw   x19, 1876(x2)
000007cc: 93a12623    sw   x26, -1748(x2)
000007d0: 01ab8433    add  x8, x23, x26
000007d4: 01644c33    xor  x24, x8, x22
000007d8: 5c412203    lw   x4, 1476(x2)
000007dc: 3f824713    xori x14, x4, 1016
000007e0: 8c976893    ori  x17, x14, -1847
000007e4: 01c88cb3    add  x25, x17, x28
000007e8: e9112e23    sw   x17, -356(x2)
000007ec: 01986c33    or   x24, x16, x25
000007f0: ff8c0ee3    beq  x24, x24, -4
000007f4: feb58ee3    beq  x11, x11, -4
000007f8: d1fc7593    andi x11, x24, -737
000007fc: de75c313    xori x6, x11, -537
00000800: 01e34433    xor  x8, x6, x30
00000804: 407405b3    sub  x11, x8, x7
00000808: 0071c733    xor  x14, x3, x7
0000080c: 7a812883    lw   x17, 1960(x2)
00000810: bac12223    sw   x12, -1116(x2)
00000814: ab67eb93    ori  x23, x15, -1354
00000818: ff7b8ee3    beq  x23, x23, -4
0000081c: 57412023    sw   x20, 1376(x2)
00000820: df012823    sw   x16, -528(x2)
00000824: 7abbf513    andi x10, x23, 1963
00000828: 9bc12a23    sw   x28, -1612(x2)
0000082c: c4712e23    sw   x7, -932(x2)
00000830: 51612a23    sw   x22, 1300(x2)
00000834: 7a612023    sw   x6, 1952(x2)
00000838: 00909263    bne  x1, x9, 4
0000083c: fe840ee3    beq  x8, x8, -4
00000840: b9312e23    sw   x19, -1124(x2)
00000844: ff9c9ee3    bne  x25, x25, -4
00000848: 012ce3b3    or   x7, x25, x18
0000084c: ffbd8ee3    beq  x27, x27, -4
00000850: 06c12423    sw   x12, 104(x2)
00000854: bd912023    sw   x25, -1088(x2)
00000858: 5b012303    lw   x6, 1456(x2)
0000085c: 33930993    addi x19, x6, 825
00000860: 15c12503    lw   x10, 348(x2)
00000864: 41a50e33    sub  x28, x10, x26
00000868: ffce0ee3    beq  x28, x28, -4
0000086c: 24e2fe13    andi x28, x5, 590
00000870: 7a512423    sw   x5, 1960(x2)
00000874: 40f12023    sw   x15, 1024(x2)
00000878: 003d1263    bne  x26, x3, 4
0000087c: 68c12f83    lw   x31, 1676(x2)
00000880: 015febb3    or   x23, x31, x21
00000884: eff12c23    sw   x31, -264(x2)
00000888: 08b12a23    sw   x11, 148(x2)
0000088c: 2ff5cf13    xori x30, x11, 767
00000890: ffef1ee3    bne  x30, x30, -4
00000894: 00ff1263    bne  x30, x15, 4
00000898: ffff8ee3    beq  x31, x31, -4
0000089c: afc56b13    ori  x22, x10, -1284
000008a0: ff6b0ee3    beq  x22, x22, -4
000008a4: ff5a8ee3    beq  x21, x21, -4
000008a8: 00818933    add  x18, x3, x8
000008ac: 84112623    sw   x1, -1972(x2)
000008b0: 017de2b3    or   x5, x27, x23
000008b4: 004286b3    add  x13, x5, x4
000008b8: c5512023    sw   x21, -960(x2)
000008bc: 0142c0b3    xor  x1, x5, x20
000008c0: ed012a83    lw   x21, -304(x2)
000008c4: ee312823    sw   x3, -272(x2)
000008c8: 0192c733    xor  x14, x5, x25
000008cc: 0dc77b13    andi x22, x14, 220
000008d0: 8d812e03    lw   x28, -1832(x2)
000008d4: 1753cb13    xori x22, x7, 373
000008d8: 459b4213    xori x4, x22, 1113
000008dc: 01e240b3    xor  x1, x4, x30
000008e0: 56c12a23    sw   x12, 1396(x2)
000008e4: a4112a23    sw   x1, -1452(x2)
000008e8: ee412103    lw   x2, -284(x2)
000008ec: 54812703    lw   x14, 1352(x2)
000008f0: ff290ee3    beq  x18, x18, -4
000008f4: 01f543b3    xor  x7, x10, x31
000008f8: a0a12e23    sw   x10, -1508(x2)
000008fc: fd2c0193    addi x3, x24, -46
00000900: ff4a1ee3    bne  x20, x20, -4
00000904: 867b0c13    addi x24, x22, -1945
00000908: ff8c1ee3    bne  x24, x24, -4
0000090c: d5412603    lw   x12, -684(x2)
00000910: bc412c83    lw   x25, -1084(x2)
00000914: a0812483    lw   x9, -1528(x2)
00000918: 69112823    sw   x17, 1680(x2)
0000091c: d0886493    ori  x9, x16, -760
00000920: 419b08b3    sub  x17, x22, x25
00000924: 40288933    sub  x18, x17, x2
00000928: 56b90413    addi x8, x18, 1387
0000092c: 0ac12d83    lw   x27, 172(x2)
00000930: 408d8e33    sub  x28, x27, x8
00000934: ffce1ee3    bne  x28, x28, -4
00000938: 27812183    lw   x3, 632(x2)
0000093c: fe319ee3    bne  x3, x3, -4
00000940: 3d312423    sw   x19, 968(x2)
00000944: cd1cf093    andi x1, x25, -815
00000948: ff290ee3    beq  x18, x18, -4
0000094c: 1c412a23    sw   x4, 468(x2)
00000950: 7bf12e23    sw   x31, 1980(x2)
00000954: 00328263    beq  x5, x3, 4
00000958: 3ef12423    sw   x15, 1000(x2)
0000095c: 0061cbb3    xor  x23, x3, x6
00000960: ff398ee3    beq  x19, x19, -4
00000964: 49012b83    lw   x23, 1168(x2)
00000968: f7812183    lw   x3, -136(x2)
0000096c: 404c83b3    sub  x7, x25, x4
00000970: 00d3cdb3    xor  x27, x7, x13
00000974: bd412183    lw   x3, -1068(x2)
00000978: 41c18f33    sub  x30, x3, x28
0000097c: ffef1ee3    bne  x30, x30, -4
00000980: 05012d83    lw   x27, 80(x2)
00000984: 01368263    beq  x13, x19, 4
00000988: 00620263    beq  x4, x6, 4
0000098c: 008d8263    beq  x27, x8, 4
00000990: ab012983    lw   x19, -1360(x2)
00000994: 00398433    add  x8, x19, x3
00000998: 0042f133    and  x2, x5, x4
0000099c: ffef1ee3    bne  x30, x30, -4
000009a0: d8c12223    sw   x12, -636(x2)
000009a4: 0f412783    lw   x15, 244(x2)
000009a8: ff4a1ee3    bne  x20, x20, -4
000009ac: 9e312823    sw   x3, -1552(x2)
000009b0: e7512023    sw   x21, -416(x2)
000009b4: 43d88d93    addi x27, x17, 1085
000009b8: 31e12023    sw   x30, 768(x2)
000009bc: 0a612223    sw   x6, 164(x2)
000009c0: ff4a1ee3    bne  x20, x20, -4
000009c4: ff080ee3    beq  x16, x16, -4
000009c8: 08727993    andi x19, x4, 135
000009cc: 35a14f93    xori x31, x2, 858
000009d0: 37b36f93    ori  x31, x6, 891
000009d4: c8c12983    lw   x19, -884(x2)
000009d8: 1e612023    sw   x6, 480(x2)
000009dc: 415184b3    sub  x9, x3, x21
000009e0: e7012d03    lw   x26, -400(x2)
000009e4: 9e412083    lw   x1, -1564(x2)
000009e8: 3ad08213    addi x4, x1, 941
000009ec: b2b12c23    sw   x11, -1224(x2)
000009f0: 7972cb13    xori x22, x5, 1943
000009f4: f2412b03    lw   x22, -220(x2)
000009f8: 16c12283    lw   x5, 364(x2)
000009fc: 01429263    bne  x5, x20, 4
00000a00: 414c85b3    sub  x11, x25, x20
00000a04: 005466b3    or   x13, x8, x5
00000a08: 2be58813    addi x16, x11, 702
00000a0c: 00987e33    and  x28, x16, x9
00000a10: ffce1ee3    bne  x28, x28, -4
00000a14: 7dd12223    sw   x29, 1988(x2)
00000a18: b3b12e23    sw   x27, -1220(x2)
00000a1c: 670e7193    andi x3, x28, 1648
00000a20: fe108ee3    beq  x1, x1, -4
00000a24: 00730263    beq  x6, x7, 4
00000a28: 014efab3    and  x21, x29, x20
00000a2c: d0674113    xori x2, x14, -762
00000a30: 07d14b93    xori x23, x2, 125
00000a34: 013be933    or   x18, x23, x19
00000a38: 003665b3    or   x11, x12, x3
00000a3c: 8d280393    addi x7, x16, -1838
00000a40: 01d3e233    or   x4, x7, x29
00000a44: 06312c23    sw   x3, 120(x2)
00000a48: 4346e613    ori  x12, x13, 1076
00000a4c: fec61ee3    bne  x12, x12, -4
00000a50: 41a48c33    sub  x24, x9, x26
00000a54: ff8c1ee3    bne  x24, x24, -4
00000a58: 46398e13    addi x28, x19, 1123
00000a5c: f9012423    sw   x16, -120(x2)
00000a60: 0146cfb3    xor  x31, x13, x20
00000a64: 65ef8313    addi x6, x31, 1630
00000a68: 95d3f793    andi x15, x7, -1699
00000a6c: 0407f593    andi x11, x15, 64
00000a70: 0131e733    or   x14, x3, x19
00000a74: 87a12223    sw   x26, -1948(x2)
00000a78: b8e12c23    sw   x14, -1128(x2)
00000a7c: 01498db3    add  x27, x19, x20
00000a80: 52412483    lw   x9, 1316(x2)
00000a84: 92612823    sw   x6, -1744(x2)
00000a88: 92d12e23    sw   x13, -1732(x2)
00000a8c: 73458f93    addi x31, x11, 1844
00000a90: 1b012503    lw   x10, 432(x2)
00000a94: 40550633    sub  x12, x10, x5
00000a98: 09c12c03    lw   x24, 156(x2)
00000a9c: ec3c4f93    xori x31, x24, -317
00000aa0: 9cc12883    lw   x17, -1588(x2)
00000aa4: ff7b8ee3    beq  x23, x23, -4
00000aa8: 40788fb3    sub  x31, x17, x7
00000aac: 00246733    or   x14, x8, x2
00000ab0: 4b512823    sw   x21, 1200(x2)
00000ab4: 40cb08b3    sub  x17, x22, x12
00000ab8: 32c12823    sw   x12, 816(x2)
00000abc: ae412503    lw   x10, -1308(x2)
00000ac0: 01a50263    beq  x10, x26, 4
00000ac4: 09cafb13    andi x22, x21, 156
00000ac8: 01ab0263    beq  x22, x26, 4
00000acc: f2928513    addi x10, x5, -215
00000ad0: 58c12e83    lw   x29, 1420(x2)
00000ad4: ef812783    lw   x15, -264(x2)
00000ad8: b4112223    sw   x1, -1212(x2)
00000adc: 10812503    lw   x10, 264(x2)
00000ae0: 0d812a83    lw   x21, 216(x2)
00000ae4: e0412283    lw   x5, -508(x2)
00000ae8: 00e2cc33    xor  x24, x5, x14
00000aec: 00ac64b3    or   x9, x24, x10
00000af0: 017c49b3    xor  x19, x24, x23
00000af4: 378bc893    xori x17, x23, 888
00000af8: b1f8e813    ori  x16, x17, -1249
00000afc: adb86413    ori  x8, x16, -1317
00000b00: 57412d03    lw   x26, 1396(x2)
00000b04: 6d412e03    lw   x28, 1748(x2)
00000b08: ffce0ee3    beq  x28, x28, -4
00000b0c: 0123e5b3    or   x11, x7, x18
00000b10: e685f613    andi x12, x11, -408
00000b14: c8b12a23    sw   x11, -876(x2)
00000b18: 00c36bb3    or   x23, x6, x12
00000b1c: 00a16433    or   x8, x2, x10
00000b20: ad1cc293    xori x5, x25, -1327
00000b24: 5bf12c23    sw   x31, 1464(x2)
00000b28: 0080cd33    xor  x26, x1, x8
00000b2c: ffad0ee3    beq  x26, x26, -4
00000b30: fe108ee3    beq  x1, x1, -4
00000b34: 1fc12283    lw   x5, 508(x2)
00000b38: d5812183    lw   x3, -680(x2)
00000b3c: 2ce12623    sw   x14, 716(x2)
00000b40: 7ac12603    lw   x12, 1964(x2)
00000b44: 88812e23    sw   x8, -1892(x2)
00000b48: d6828213    addi x4, x5, -664
00000b4c: 01e26b33    or   x22, x4, x30
00000b50: 002b4c33    xor  x24, x22, x2
00000b54: 00ec0833    add  x16, x24, x14
00000b58: ce712223    sw   x7, -796(x2)
00000b5c: 00eafc33    and  x24, x21, x14
00000b60: b5bc4893    xori x17, x24, -1189
00000b64: 01120263    beq  x4, x17, 4
00000b68: e7412603    lw   x12, -396(x2)
00000b6c: eb712223    sw   x23, -348(x2)
00000b70: 86858b93    addi x23, x11, -1944
00000b74: ff7b9ee3    bne  x23, x23, -4
00000b78: 01e18533    add  x10, x3, x30
00000b7c: 07012783    lw   x15, 112(x2)
00000b80: 00c7fe33    and  x28, x15, x12
00000b84: 01de0cb3    add  x25, x28, x29
00000b88: fe528ee3    beq  x5, x5, -4
00000b8c: 09d12a23    sw   x29, 148(x2)
00000b90: dd812203    lw   x4, -552(x2)
00000b94: 45412b83    lw   x23, 1108(x2)
00000b98: c3da8c13    addi x24, x21, -963
00000b9c: 550e0f93    addi x31, x28, 1360
00000ba0: dd412623    sw   x20, -564(x2)
00000ba4: 41160933    sub  x18, x12, x17
00000ba8: 00990bb3    add  x23, x18, x9
00000bac: b0cbe713    ori  x14, x23, -1268
00000bb0: 45012283    lw   x5, 1104(x2)
00000bb4: 016a0333    add  x6, x20, x22
00000bb8: d4312423    sw   x3, -696(x2)
00000bbc: 0e65e113    ori  x2, x11, 230
00000bc0: 4fb12223    sw   x27, 1252(x2)
00000bc4: 64312a23    sw   x3, 1620(x2)
00000bc8: bcc12803    lw   x16, -1076(x2)
00000bcc: fed68ee3    beq  x13, x13, -4
00000bd0: e9c12a83    lw   x21, -356(x2)
00000bd4: 9bc12d83    lw   x27, -1604(x2)
00000bd8: 3b712023    sw   x23, 928(x2)
00000bdc: 2ec20693    addi x13, x4, 748
00000be0: b6412103    lw   x2, -1180(x2)
00000be4: b6912623    sw   x9, -1172(x2)
00000be8: 0083e8b3    or   x17, x7, x8
00000bec: 0025ebb3    or   x23, x11, x2
00000bf0: 6b612023    sw   x22, 1696(x2)
00000bf4: 8238c913    xori x18, x17, -2013
00000bf8: db712423    sw   x23, -600(x2)
00000bfc: 465c0b13    addi x22, x24, 1125
00000c00: 57412223    sw   x20, 1380(x2)
00000c04: 4bbce593    ori  x11, x25, 1211
00000c08: 1902ce13    xori x28, x5, 400
00000c0c: eb5bfa13    andi x20, x23, -331
00000c10: 250f7b93    andi x23, x30, 592
00000c14: 55612c23    sw   x22, 1368(x2)
00000c18: 58412d03    lw   x26, 1412(x2)
00000c1c: ffad0ee3    beq  x26, x26, -4
00000c20: d2412503    lw   x10, -732(x2)
00000c24: 00757db3    and  x27, x10, x7
00000c28: b5412223    sw   x20, -1212(x2)
00000c2c: f9ac4893    xori x17, x24, -102
00000c30: 00e56833    or   x16, x10, x14
00000c34: 019584b3    add  x9, x11, x25
00000c38: f3e12a23    sw   x30, -204(x2)
00000c3c: e4812c83    lw   x25, -440(x2)
00000c40: dfb78313    addi x6, x15, -517
00000c44: fe211ee3    bne  x2, x2, -4
00000c48: 82c12583    lw   x11, -2004(x2)
00000c4c: 41f58633    sub  x12, x11, x31
00000c50: 7b012d03    lw   x26, 1968(x2)
00000c54: f0812f83    lw   x31, -248(x2)
00000c58: ffff9ee3    bne  x31, x31, -4
00000c5c: 0086ffb3    and  x31, x13, x8
00000c60: 16412383    lw   x7, 356(x2)
00000c64: 01780633    add  x12, x16, x23
00000c68: 24560713    addi x14, x12, 581
00000c6c: 10c12083    lw   x1, 268(x2)
00000c70: 78212823    sw   x2, 1936(x2)
00000c74: aa2ae213    ori  x4, x21, -1374
00000c78: 00820c33    add  x24, x4, x8
00000c7c: b4712823    sw   x7, -1200(x2)
00000c80: a5812623    sw   x24, -1460(x2)
00000c84: 28212e23    sw   x2, 668(x2)
00000c88: fe211ee3    bne  x2, x2, -4
00000c8c: 50b9e693    ori  x13, x19, 1291
00000c90: 88812683    lw   x13, -1912(x2)
00000c94: 0026ccb3    xor  x25, x13, x2
00000c98: 01b8fbb3    and  x23, x17, x27
00000c9c: 00fb9263    bne  x23, x15, 4
00000ca0: 006b69b3    or   x19, x22, x6
00000ca4: c9c12503    lw   x10, -868(x2)
00000ca8: 85812903    lw   x18, -1960(x2)
00000cac: 01514733    xor  x14, x2, x21
00000cb0: eb812c03    lw   x24, -328(x2)
00000cb4: c8612623    sw   x6, -884(x2)
00000cb8: e3412203    lw   x4, -460(x2)
00000cbc: 01024bb3    xor  x23, x4, x16
00000cc0: 004bf433    and  x8, x23, x4
00000cc4: c1812b03    lw   x22, -1000(x2)
00000cc8: ff6b0ee3    beq  x22, x22, -4
00000ccc: 1c812b83    lw   x23, 456(x2)
00000cd0: 21c12f83    lw   x31, 540(x2)
00000cd4: ffff8ee3    beq  x31, x31, -4
00000cd8: 0db12c23    sw   x27, 216(x2)
00000cdc: 75812783    lw   x15, 1880(x2)
00000ce0: b6612c23    sw   x6, -1160(x2)
00000ce4: c7812e83    lw   x29, -904(x2)
00000ce8: 01ee80b3    add  x1, x29, x30
00000cec: ede12623    sw   x30, -308(x2)
00000cf0: fe949ee3    bne  x9, x9, -4
00000cf4: 48c12403    lw   x8, 1164(x2)
00000cf8: c4812783    lw   x15, -952(x2)
00000cfc: fef78ee3    beq  x15, x15, -4
00000d00: 647e7313    andi x6, x28, 1607
00000d04: 37b34113    xori x2, x6, 891
00000d08: 00d174b3    and  x9, x2, x13
00000d0c: 46812803    lw   x16, 1128(x2)
00000d10: b4c12b83    lw   x23, -1204(x2)
00000d14: d9012683    lw   x13, -624(x2)
00000d18: 0096c7b3    xor  x15, x13, x9
00000d1c: 30812803    lw   x16, 776(x2)
00000d20: d4c0c493    xori x9, x1, -692
00000d24: dfb4f313    andi x6, x9, -517
00000d28: 40f30e33    sub  x28, x6, x15
00000d2c: ffce1ee3    bne  x28, x28, -4
00000d30: 8a812a23    sw   x8, -1868(x2)
00000d34: ff398ee3    beq  x19, x19, -4
00000d38: d5210513    addi x10, x2, -686
00000d3c: 0036f433    and  x8, x13, x3
00000d40: d6812a23    sw   x8, -652(x2)
00000d44: 076a7313    andi x6, x20, 118
00000d48: 40d78733    sub  x14, x15, x13
00000d4c: fee71ee3    bne  x14, x14, -4
00000d50: 410a0fb3    sub  x31, x20, x16
00000d54: 011f8263    beq  x31, x17, 4
00000d58: ff6b0ee3    beq  x22, x22, -4
00000d5c: 56c12a23    sw   x12, 1396(x2)
00000d60: f5f12a23    sw   x31, -172(x2)
00000d64: 33312a23    sw   x19, 820(x2)
00000d68: 005f6533    or   x10, x30, x5
00000d6c: 01557fb3    and  x31, x10, x21
00000d70: 013f88b3    add  x17, x31, x19
00000d74: ff189ee3    bne  x17, x17, -4
00000d78: 01d24513    xori x10, x4, 29
00000d7c: 4b412c83    lw   x25, 1204(x2)
00000d80: dac12c23    sw   x12, -584(x2)
00000d84: 1d012983    lw   x19, 464(x2)
00000d88: f5a98793    addi x15, x19, -166
00000d8c: 2d424d93    xori x27, x4, 724
00000d90: 40dd8b33    sub  x22, x27, x13
00000d94: ff6b1ee3    bne  x22, x22, -4
00000d98: fe948ee3    beq  x9, x9, -4
00000d9c: 4d412823    sw   x20, 1232(x2)
00000da0: 416508b3    sub  x17, x10, x22
00000da4: e3812103    lw   x2, -456(x2)
00000da8: 927bf613    andi x12, x23, -1753
00000dac: fec61ee3    bne  x12, x12, -4
00000db0: 4f312c23    sw   x19, 1272(x2)
00000db4: 013085b3    add  x11, x1, x19
00000db8: 31c12f83    lw   x31, 796(x2)
00000dbc: 4edfc993    xori x19, x31, 1261
00000dc0: 0039c933    xor  x18, x19, x3
00000dc4: 00012b83    lw   x23, 0(x2)
00000dc8: fd912423    sw   x25, -56(x2)
00000dcc: 6bd12e23    sw   x29, 1724(x2)
00000dd0: ba912c23    sw   x9, -1096(x2)
00000dd4: 008a8263    beq  x21, x8, 4
00000dd8: 84c12b83    lw   x23, -1972(x2)
00000ddc: 2e312823    sw   x3, 752(x2)
00000de0: 20c12423    sw   x12, 520(x2)
00000de4: dd812f83    lw   x31, -552(x2)
00000de8: e6812023    sw   x8, -416(x2)
00000dec: e9c12403    lw   x8, -356(x2)
00000df0: cfc12c83    lw   x25, -772(x2)
00000df4: 83912a23    sw   x25, -1996(x2)
00000df8: 00cfeab3    or   x21, x31, x12
00000dfc: 7b412303    lw   x6, 1972(x2)
00000e00: f1912c23    sw   x25, -232(x2)
00000e04: 75f12623    sw   x31, 1868(x2)
00000e08: 49812e03    lw   x28, 1176(x2)
00000e0c: 00fe45b3    xor  x11, x28, x15
00000e10: feb58ee3    beq  x11, x11, -4
00000e14: dfc12903    lw   x18, -516(x2)
00000e18: 3b412303    lw   x6, 948(x2)
00000e1c: 3ac12e03    lw   x28, 940(x2)
00000e20: b32e7c13    andi x24, x28, -1230
00000e24: 42712823    sw   x7, 1072(x2)
00000e28: 84ffc313    xori x6, x31, -1969
00000e2c: 79012503    lw   x10, 1936(x2)
00000e30: 00456cb3    or   x25, x10, x4
00000e34: 73c12d83    lw   x27, 1852(x2)
00000e38: 05012603    lw   x12, 80(x2)
00000e3c: 30012083    lw   x1, 768(x2)
00000e40: 11b0f693    andi x13, x1, 283
00000e44: a8d12023    sw   x13, -1408(x2)
00000e48: 2cb7f713    andi x14, x15, 715
00000e4c: 00670633    add  x12, x14, x6
00000e50: 08c12a03    lw   x20, 140(x2)
00000e54: 39812e23    sw   x24, 924(x2)
00000e58: 52612e23    sw   x6, 1340(x2)
00000e5c: 00d0fc93    andi x25, x1, 13
00000e60: fe630ee3    beq  x6, x6, -4
00000e64: ffde8ee3    beq  x29, x29, -4
00000e68: fed68ee3    beq  x13, x13, -4
00000e6c: ff4a1ee3    bne  x20, x20, -4
00000e70: 62c12a83    lw   x21, 1580(x2)
00000e74: 91fa8b93    addi x23, x21, -1761
00000e78: 6fc12823    sw   x28, 1776(x2)
00000e7c: c5f12823    sw   x31, -944(x2)
00000e80: 5f112423    sw   x17, 1512(x2)
00000e84: 31c12803    lw   x16, 796(x2)
00000e88: 1cc12c23    sw   x12, 472(x2)
00000e8c: 85412083    lw   x1, -1964(x2)
00000e90: 12d0e893    ori  x17, x1, 301
00000e94: 74a12223    sw   x10, 1860(x2)
00000e98: 01570263    beq  x14, x21, 4
00000e9c: e0812703    lw   x14, -504(x2)
00000ea0: 41b44493    xori x9, x8, 1051
00000ea4: 11c4eb13    ori  x22, x9, 284
00000ea8: dd670293    addi x5, x14, -554
00000eac: 0b712a23    sw   x23, 180(x2)
00000eb0: 89c12283    lw   x5, -1892(x2)
00000eb4: 10728513    addi x10, x5, 263
00000eb8: 40350333    sub  x6, x10, x3
00000ebc: 1fa12c23    sw   x26, 504(x2)
00000ec0: 90b12023    sw   x11, -1792(x2)
00000ec4: 002c9263    bne  x25, x2, 4
00000ec8: dc712623    sw   x7, -564(x2)
00000ecc: 86412223    sw   x4, -1948(x2)
00000ed0: 62cbc413    xori x8, x23, 1580
00000ed4: 00478263    beq  x15, x4, 4
00000ed8: 25412303    lw   x6, 596(x2)
00000edc: 01230263    beq  x6, x18, 4
00000ee0: e5812603    lw   x12, -424(x2)
00000ee4: 416387b3    sub  x15, x7, x22
00000ee8: bd412683    lw   x13, -1068(x2)
00000eec: fe211ee3    bne  x2, x2, -4
00000ef0: adc12403    lw   x8, -1316(x2)
00000ef4: fe840ee3    beq  x8, x8, -4
00000ef8: ff5a8ee3    beq  x21, x21, -4
00000efc: 31c12d03    lw   x26, 796(x2)
00000f00: 37812a23    sw   x24, 884(x2)
00000f04: 017ee7b3    or   x15, x29, x23
00000f08: e1312823    sw   x19, -496(x2)
00000f0c: 6fc12483    lw   x9, 1788(x2)
00000f10: cf5e0793    addi x15, x28, -779
00000f14: 68412083    lw   x1, 1668(x2)
00000f18: 3a6c0d13    addi x26, x24, 934
00000f1c: 01cd46b3    xor  x13, x26, x28
00000f20: 2526e793    ori  x15, x13, 594
00000f24: fef78ee3    beq  x15, x15, -4
00000f28: ffff8ee3    beq  x31, x31, -4
00000f2c: 90480a13    addi x20, x16, -1788
00000f30: 02212823    sw   x2, 48(x2)
00000f34: 01fa03b3    add  x7, x20, x31
00000f38: 01b3eb33    or   x22, x7, x27
00000f3c: 3da12623    sw   x26, 972(x2)
00000f40: 94c12c03    lw   x24, -1716(x2)
00000f44: b3dc0c93    addi x25, x24, -1219
00000f48: db9cf913    andi x18, x25, -583
00000f4c: 6ac12b83    lw   x23, 1708(x2)
00000f50: 4d9bf893    andi x17, x23, 1241
00000f54: 35d12223    sw   x29, 836(x2)
00000f58: 53012c83    lw   x25, 1328(x2)
00000f5c: fb012983    lw   x19, -80(x2)
00000f60: 38412f83    lw   x31, 900(x2)
00000f64: 00af8ab3    add  x21, x31, x10
00000f68: 83412503    lw   x10, -1996(x2)
00000f6c: 01f5f9b3    and  x19, x11, x31
00000f70: 93598793    addi x15, x19, -1739
00000f74: ffc12403    lw   x8, -4(x2)
00000f78: ef812a23    sw   x24, -268(x2)
00000f7c: 00659263    bne  x11, x6, 4
00000f80: 015bc533    xor  x10, x23, x21
00000f84: a9912023    sw   x25, -1408(x2)
00000f88: ff9c9ee3    bne  x25, x25, -4
00000f8c: 418e0ab3    sub  x21, x28, x24
00000f90: 9aa12c23    sw   x10, -1608(x2)
00000f94: f105e293    ori  x5, x11, -240
00000f98: 65912023    sw   x25, 1600(x2)
00000f9c: 40e88533    sub  x10, x17, x14
